	.file	"EMU01.c"
	.intel_syntax noprefix
	.text
.lcomm PMEM$,8,8
.lcomm MEMCUR$,8,8
	.data
	.align 4
SCRX$:
	.long	1536
	.align 4
SCRY$:
	.long	960
	.align 4
TWX$:
	.long	8
	.align 4
TWY$:
	.long	16
	.align 4
PBASE$:
	.long	16384
	.align 4
ABASE$:
	.long	22528
	.align 4
BBASE$:
	.long	208
	.align 4
DIVA$:
	.long	1091567616
	.align 4
DIVB$:
	.long	1074580685
	.align 4
DIVC$:
	.long	1071225242
	.align 4
DIVD$:
	.long	1067030938
.lcomm PMOS$,8,8
.lcomm PMOSC$,8,8
.lcomm PSTAT$,8,8
.lcomm PROOT$,8,8
.lcomm POFFS$,8,8
	.align 4
MEMMAX$:
	.long	131072
	.align 4
UOPMAX$:
	.long	65536
	.align 4
PAGEMAX$:
	.long	7
.lcomm MAIN$,4,4
	.align 4
XDD$:
	.long	256
	.align 4
XFD$:
	.long	512
	.align 4
XCB$:
	.long	768
	.align 4
XED$:
	.long	1024
	.align 4
XDDCB$:
	.long	1280
	.align 4
XFDCB$:
	.long	1536
	.align 4
XFS$:
	.long	128
	.align 4
XFZ$:
	.long	64
	.align 4
XF5$:
	.long	32
	.align 4
XFH$:
	.long	16
	.align 4
XF3$:
	.long	8
	.align 4
XFP$:
	.long	4
	.align 4
XFN$:
	.long	2
	.align 4
XFC$:
	.long	1
	.align 4
NOPFX$:
	.long	2
	.align 4
GOLDIR$:
	.long	7
	.align 4
GOCPIR$:
	.long	7
.lcomm XXDCB$,4,4
.lcomm CADD$,4,4
	.align 4
CSUB$:
	.long	131072
	.align 4
CAND$:
	.long	262144
	.align 4
CXOR$:
	.long	327680
	.align 4
COR$:
	.long	393216
	.align 4
CCP$:
	.long	458752
.lcomm PFLAG$,8,8
.lcomm PADD$,8,8
.lcomm PSUB$,8,8
.lcomm PAND$,8,8
.lcomm PXOR$,8,8
.lcomm PPOR$,8,8
.lcomm PPCP$,8,8
.lcomm PRLC$,8,8
.lcomm PRRC$,8,8
.lcomm PRL$,8,8
.lcomm PRR$,8,8
.lcomm PSLA$,8,8
.lcomm PSRA$,8,8
.lcomm PSLL$,8,8
.lcomm PSRL$,8,8
.lcomm PDAA$,8,8
.lcomm EXTL$,132,32
.lcomm TAKL$,132,32
.lcomm EPFX$,36,32
.lcomm CYC$,4,4
.lcomm F1$,8,8
.lcomm T1$,4,4
.lcomm T2$,4,4
.lcomm T3$,4,4
.lcomm T4$,4,4
.lcomm T5$,4,4
.lcomm T6$,4,4
.lcomm T7$,4,4
.lcomm T8$,4,4
.lcomm T9$,4,4
.lcomm T0$,4,4
.lcomm S1$,4,4
.lcomm S2$,4,4
.lcomm S3$,4,4
.lcomm S4$,4,4
.lcomm E1$,4,4
.lcomm E2$,4,4
.lcomm E3$,4,4
.lcomm E4$,4,4
.lcomm E5$,4,4
.lcomm E6$,4,4
.lcomm E7$,4,4
.lcomm E8$,4,4
.lcomm E9$,4,4
.lcomm E0$,4,4
.lcomm E10$,4,4
.lcomm E11$,4,4
.lcomm E12$,4,4
.lcomm E13$,4,4
.lcomm E14$,4,4
.lcomm E15$,4,4
.lcomm TX$,24,16
.lcomm SS1$,24,16
.lcomm SS2$,24,16
.lcomm SS3$,24,16
.lcomm SS4$,24,16
.lcomm SS5$,24,16
.lcomm SS6$,24,16
.lcomm SS7$,24,16
.lcomm SS8$,24,16
.lcomm SS9$,24,16
.lcomm K$,24,16
.lcomm KK$,24,16
.lcomm UOPST$,4096,32
.lcomm X$,648,32
.lcomm DAT$,33554433,32
	.align 4
IUADBC$:
	.long	1
	.align 4
IUADDE$:
	.long	2
	.align 4
IUAHL$:
	.long	3
	.align 4
IUAWZ$:
	.long	4
	.align 4
IUAAD$:
	.long	5
	.align 4
IUADSP$:
	.long	6
	.align 4
IUAIX$:
	.long	7
	.align 4
IUAIY$:
	.long	8
	.align 4
IUAPCI$:
	.long	9
	.align 4
IUFET$:
	.long	10
	.align 4
IUAIRIUF$:
	.long	11
	.align 4
IURALF$:
	.long	12
	.align 4
IULTB$:
	.long	13
	.align 4
IULBT$:
	.long	21
	.align 4
IUALF$:
	.long	19
	.align 4
IULRBT$:
	.long	21
	.align 4
IULRCT$:
	.long	22
	.align 4
IULRDT$:
	.long	23
	.align 4
IULRET$:
	.long	24
	.align 4
IULRHT$:
	.long	25
	.align 4
IULRLT$:
	.long	26
	.align 4
IULRAT$:
	.long	28
	.align 4
IUHALT$:
	.long	27
	.align 4
IUBWR$:
	.long	29
	.align 4
IUCWR$:
	.long	30
	.align 4
IUDWR$:
	.long	31
	.align 4
IUEWR$:
	.long	32
	.align 4
IUHWR$:
	.long	33
	.align 4
IULWR$:
	.long	34
	.align 4
IUOWR$:
	.long	35
	.align 4
IUAWR$:
	.long	36
	.align 4
IURCW$:
	.long	37
	.align 4
IUWCW$:
	.long	38
	.align 4
IUDOW$:
	.long	39
	.align 4
IUNOP$:
	.long	40
	.align 4
IUTRD$:
	.long	41
	.align 4
IUTWR$:
	.long	42
	.align 4
IULSLT$:
	.long	43
	.align 4
IULSHT$:
	.long	44
	.align 4
IULWE$:
	.long	45
	.align 4
IULWA$:
	.long	46
	.align 4
IULWT$:
	.long	47
	.align 4
IULZT$:
	.long	48
	.align 4
IULW0$:
	.long	50
	.align 4
IUWZI$:
	.long	51
	.align 4
IUBCI$:
	.long	52
	.align 4
IUDEI$:
	.long	53
	.align 4
IUHLI$:
	.long	54
	.align 4
IUSPI$:
	.long	55
	.align 4
IUADI$:
	.long	56
	.align 4
IUIXI$:
	.long	57
	.align 4
IUIYI$:
	.long	58
	.align 4
IUADIWZ$:
	.long	59
	.align 4
IUADD$:
	.long	61
	.align 4
IUBCD$:
	.long	62
	.align 4
IUBCDPV$:
	.long	63
	.align 4
IUDED$:
	.long	64
	.align 4
IUHLD$:
	.long	65
	.align 4
IUSPD$:
	.long	66
	.align 4
IUWZD$:
	.long	67
	.align 4
IUIXD$:
	.long	68
	.align 4
IUIYD$:
	.long	69
	.align 4
IULDHL$:
	.long	72
	.align 4
IULDWZ$:
	.long	74
	.align 4
IULDPC$:
	.long	75
	.align 4
IULDIX$:
	.long	76
	.align 4
IULDIY$:
	.long	77
	.align 4
IULBCD$:
	.long	78
	.align 4
IULDED$:
	.long	79
	.align 4
IULHLD$:
	.long	80
	.align 4
IULWZD$:
	.long	81
	.align 4
IULSPD$:
	.long	82
	.align 4
IULPCD$:
	.long	83
	.align 4
IULIXD$:
	.long	84
	.align 4
IULIYD$:
	.long	85
	.align 4
IUPFXDD$:
	.long	86
	.align 4
IUPFXFD$:
	.long	87
	.align 4
IUPFXCB$:
	.long	88
	.align 4
IUPFXED$:
	.long	89
	.align 4
IUPFXDC$:
	.long	90
	.align 4
IUPFXFC$:
	.long	91
	.align 4
IUSLWR$:
	.long	92
	.align 4
IUSHWR$:
	.long	93
	.align 4
IUPLWR$:
	.long	94
	.align 4
IUPHWR$:
	.long	95
	.align 4
IUXHWR$:
	.long	96
	.align 4
IUXLWR$:
	.long	97
	.align 4
IUYHWR$:
	.long	98
	.align 4
IUYLWR$:
	.long	99
	.align 4
IULLRB$:
	.long	100
	.align 4
IULLRC$:
	.long	101
	.align 4
IULLRD$:
	.long	102
	.align 4
IULLRE$:
	.long	103
	.align 4
IULLRH$:
	.long	104
	.align 4
IULLRL$:
	.long	105
	.align 4
IULLRT$:
	.long	106
	.align 4
IULLRA$:
	.long	107
	.align 4
IULLXL$:
	.long	108
	.align 4
IULLXH$:
	.long	109
	.align 4
IULLYL$:
	.long	110
	.align 4
IULLYH$:
	.long	111
	.align 4
IULLPL$:
	.long	112
	.align 4
IULLPH$:
	.long	113
	.align 4
IULRIA$:
	.long	114
	.align 4
IULRRA$:
	.long	115
	.align 4
IULRBL$:
	.long	116
	.align 4
IULRCL$:
	.long	117
	.align 4
IULRDL$:
	.long	118
	.align 4
IULREL$:
	.long	119
	.align 4
IULRHL$:
	.long	120
	.align 4
IULRLL$:
	.long	121
	.align 4
IULRTL$:
	.long	122
	.align 4
IULRAL$:
	.long	123
	.align 4
IULRZL$:
	.long	124
	.align 4
IULRWL$:
	.long	125
	.align 4
IULXLL$:
	.long	126
	.align 4
IULXHL$:
	.long	127
	.align 4
IULYLL$:
	.long	128
	.align 4
IULYHL$:
	.long	129
	.align 4
IULRFT$:
	.long	130
	.align 4
IULXLT$:
	.long	131
	.align 4
IULXHT$:
	.long	132
	.align 4
IULYLT$:
	.long	133
	.align 4
IULYHT$:
	.long	134
	.align 4
IULTXL$:
	.long	135
	.align 4
IULTXH$:
	.long	136
	.align 4
IULTYL$:
	.long	137
	.align 4
IULTYH$:
	.long	138
	.align 4
IULBADD$:
	.long	139
	.align 4
IULTADD$:
	.long	145
	.align 4
IULXSADD$:
	.long	147
	.align 4
IULBADC$:
	.long	153
	.align 4
IULTADC$:
	.long	159
	.align 4
IULXSADC$:
	.long	161
	.align 4
IULBSUB$:
	.long	167
	.align 4
IULTSUB$:
	.long	173
	.align 4
IULXSSUB$:
	.long	175
	.align 4
IULBSBC$:
	.long	181
	.align 4
IULTSBC$:
	.long	187
	.align 4
IULXSSBC$:
	.long	189
	.align 4
IUFQADD$:
	.long	195
	.align 4
IUOINC$:
	.long	196
	.align 4
IUODEC$:
	.long	197
	.align 4
IUFQID$:
	.long	198
	.align 4
IULBAND$:
	.long	199
	.align 4
IULTAND$:
	.long	205
	.align 4
IULXSAND$:
	.long	207
	.align 4
IULBXOR$:
	.long	213
	.align 4
IULTXOR$:
	.long	219
	.align 4
IULXSXOR$:
	.long	221
	.align 4
IULBOR$:
	.long	227
	.align 4
IULTOR$:
	.long	233
	.align 4
IULXSOR$:
	.long	235
	.align 4
IULBCP$:
	.long	241
	.align 4
IULTCP$:
	.long	247
	.align 4
IULXSCP$:
	.long	249
	.align 4
IUFQSH$:
	.long	255
	.align 4
IUORLC$:
	.long	256
	.align 4
IUORRC$:
	.long	257
	.align 4
IUORL$:
	.long	258
	.align 4
IUORR$:
	.long	259
	.align 4
IUOSLA$:
	.long	260
	.align 4
IUOSRA$:
	.long	261
	.align 4
IUOSLL$:
	.long	262
	.align 4
IUOSRL$:
	.long	263
	.align 4
IUORES$:
	.long	264
	.align 4
IUOSET$:
	.long	265
	.align 4
IULTSADD$:
	.long	266
	.align 4
IUOSADDC$:
	.long	267
	.align 4
IUOBIT$:
	.long	268
	.align 4
IUODAA$:
	.long	269
	.align 4
SIGUWZ$:
	.long	270
	.align 4
SIGUHL$:
	.long	271
	.align 4
SIGUIX$:
	.long	272
	.align 4
SIGUIY$:
	.long	273
	.align 4
SIGSK6$:
	.long	274
	.align 4
SIGSK6Z$:
	.long	275
	.align 4
IECCZ$:
	.long	276
	.align 4
IECCNZ$:
	.long	277
	.align 4
IECCC$:
	.long	278
	.align 4
IECCNC$:
	.long	279
	.align 4
IECCPE$:
	.long	280
	.align 4
IECCPO$:
	.long	281
	.align 4
IECCM$:
	.long	282
	.align 4
IECCP$:
	.long	283
	.align 4
ISWCCNZ$:
	.long	284
	.align 4
ISWCCZ$:
	.long	285
	.align 4
ISWCCNC$:
	.long	286
	.align 4
ISWCCC$:
	.long	287
	.align 4
ISWCCPE$:
	.long	288
	.align 4
ISWCCPO$:
	.long	289
	.align 4
ISWCCP$:
	.long	290
	.align 4
ISWCCM$:
	.long	291
	.align 4
IUOCPL$:
	.long	292
	.align 4
IUOSCF$:
	.long	293
	.align 4
IUOCCF$:
	.long	294
	.align 4
IUNWR$:
	.long	301
	.align 4
IUTIO$:
	.long	302
	.align 4
IUPOW$:
	.long	303
	.align 4
IUFWR$:
	.long	304
	.align 4
IUONEG$:
	.long	305
	.align 4
IULLRI$:
	.long	306
	.align 4
IULLRR$:
	.long	307
	.align 4
IUFQIR$:
	.long	308
	.align 4
IUOQIO$:
	.long	309
	.align 4
IUORVN$:
	.long	310
	.align 4
IULANLL$:
	.long	311
	.align 4
IULTNLL$:
	.long	312
	.align 4
IULANLH$:
	.long	313
	.align 4
IULTNHL$:
	.long	314
	.align 4
IULAQLD$:
	.long	318
	.align 4
IULTCPQ$:
	.long	319
	.align 4
IUBXORQ$:
	.long	320
	.align 4
IUADDWZ$:
	.long	321
	.align 4
IUTADDQ$:
	.long	322
	.align 4
IULLRZ$:
	.long	324
	.align 4
IUIFF$:
	.long	328
	.align 4
IUIMRQ$:
	.long	329
	.align 4
IUIMFET$:
	.long	330
	.align 4
IULWI$:
	.long	331
	.align 4
IULZ00$:
	.long	332
	.align 4
IUWBITQ$:
	.long	340
	.align 4
ISKIP6Z$:
	.long	341
	.align 4
IULWQLD$:
	.long	342
	.align 4
IUOFRXD$:
	.long	343
	.align 4
IUFHLZ$:
	.long	344
	.align 4
IULTCPX$:
	.long	345
	.align 4
IULLRW$:
	.long	346
.lcomm TT1$,4,4
.lcomm MT1$,4,4
.lcomm MT2$,4,4
.lcomm MT3$,4,4
.lcomm MT4$,4,4
.lcomm REGL$,4,4
.lcomm REGR$,4,4
.lcomm REG$,4,4
.lcomm LALU$,4,4
.lcomm HALU$,4,4
.lcomm BCNT$,4,4
.lcomm ALUL$,4,4
.lcomm ALUR$,4,4
.lcomm DAAC$,4,4
.lcomm DAAH$,4,4
.lcomm DAAN$,4,4
.lcomm LDAA$,4,4
.lcomm HDAA$,4,4
.lcomm DAAHI$,4,4
.lcomm HDAAC$,4,4
.lcomm LDAAO$,4,4
.lcomm CORRH$,4,4
.lcomm PEW$,4,4
.lcomm RESF$,4,4
.lcomm PE$,1,1
	.align 4
UHERE$:
	.long	400
	.align 4
UUNDEF$:
	.long	500
	.align 4
UUADIMHN$:
	.long	501
	.align 4
UUPASW$:
	.long	502
	.align 4
UULAT$:
	.long	503
	.align 4
UUEXMAIR$:
	.long	504
	.align 4
UUADIRM$:
	.long	505
	.align 4
UUIRFABG$:
	.long	506
	.align 4
UUIRFAB$:
	.long	507
	.align 4
UUGINT$:
	.long	508
	.align 4
UUGINTH$:
	.long	509
	.align 4
UUHDMRG$:
	.long	511
	.align 4
UDONE$:
	.long	512
	.align 4
UEXT$:
	.long	514
	.align 4
UXEND$:
	.long	513
	.align 4
UPAR$:
	.long	515
	.align 4
UTRI$:
	.long	516
	.align 4
UUDPC$:
	.long	517
	.align 4
UUADIMR$:
	.long	518
	.align 4
UUPSSW$:
	.long	519
	.align 4
UUDPBRQ$:
	.long	520
	.align 4
UUHDMR$:
	.long	521
	.align 4
UUHDMRIG$:
	.long	522
	.align 4
UUADM$:
	.long	523
	.align 4
UUDPBRQG$:
	.long	524
	.align 4
UURFLB$:
	.long	525
	.align 4
UURAHB$:
	.long	526
	.align 4
UURCLB$:
	.long	527
	.align 4
UURBHB$:
	.long	528
	.align 4
UURELB$:
	.long	529
	.align 4
UURDHB$:
	.long	530
	.align 4
UURLLB$:
	.long	531
	.align 4
UURHHB$:
	.long	532
	.align 4
UURPLB$:
	.long	533
	.align 4
UURSHB$:
	.long	534
	.align 4
UURZLB$:
	.long	535
	.align 4
UURWHB$:
	.long	536
	.align 4
UURXLLB$:
	.long	537
	.align 4
UURXHHB$:
	.long	538
	.align 4
UURYLLB$:
	.long	539
	.align 4
UURYHHB$:
	.long	540
	.align 4
UUDBC$:
	.long	541
	.align 4
UUDDE$:
	.long	542
	.align 4
UUDHL$:
	.long	543
	.align 4
UUDSP$:
	.long	544
	.align 4
UUDIX$:
	.long	545
	.align 4
UUDIY$:
	.long	546
	.align 4
UUDI$:
	.long	547
	.align 4
UUDD$:
	.long	548
	.align 4
UUBDBG$:
	.long	549
	.align 4
UUDDBG$:
	.long	550
	.align 4
UUHDBG$:
	.long	551
	.align 4
UUSDBG$:
	.long	552
	.align 4
UUXDBG$:
	.long	553
	.align 4
UUYDBG$:
	.long	554
	.align 4
UUDL$:
	.long	555
	.align 4
UUBRQ$:
	.long	556
	.align 4
UUBRQG$:
	.long	557
	.align 4
UUEXA$:
	.long	558
	.align 4
UUEXX$:
	.long	559
	.align 4
UUXHD$:
	.long	560
	.align 4
UUDFF$:
	.long	561
	.align 4
UUSFF$:
	.long	562
	.align 4
UUCFF$:
	.long	563
	.align 4
UUIM0$:
	.long	564
	.align 4
UUIM1$:
	.long	565
	.align 4
UUIM2$:
	.long	566
	.align 4
UUEXIAPC$:
	.long	510
	.align 4
UUEXIAHL$:
	.long	567
	.align 4
UUEXIAIX$:
	.long	568
	.align 4
UUEXIAIY$:
	.long	569
	.align 4
UUEXIAWZ$:
	.long	570
	.align 4
UUEXIAPA$:
	.long	571
	.align 4
UUOADDNS$:
	.long	572
	.align 4
UUDHLD$:
	.long	573
	.align 4
UUDASW$:
	.long	574
	.align 4
UUSWR$:
	.long	575
	.align 4
UUSBGW$:
	.long	576
	.align 4
UUMWMRG$:
	.long	577
	.align 4
UUWWA$:
	.long	578
	.align 4
UUSBGWWA$:
	.long	579
	.align 4
UUADIM$:
	.long	580
	.align 4
UUSW$:
	.long	581
	.align 4
UUOSADD$:
	.long	582
	.align 4
UUOSADDCS$:
	.long	583
	.align 4
UUAXL$:
	.long	584
	.align 4
UUAYL$:
	.long	585
	.align 4
UUABLB$:
	.long	586
	.align 4
UUAXHBC$:
	.long	587
	.align 4
UUAYHBC$:
	.long	588
	.align 4
UUDWZ$:
	.long	589
	.align 4
UUWWB$:
	.long	590
	.align 4
UUWWC$:
	.long	591
	.align 4
UUWWD$:
	.long	592
	.align 4
UUWWE$:
	.long	593
	.align 4
UUWWH$:
	.long	594
	.align 4
UUWWL$:
	.long	595
	.align 4
UUMRG$:
	.long	596
	.align 4
UUMR$:
	.long	597
	.align 4
UUEXIAPLB$:
	.long	598
	.align 4
UUEXIAPLC$:
	.long	599
	.align 4
UUEXIAPLD$:
	.long	600
	.align 4
UUEXIAPLE$:
	.long	601
	.align 4
UUEXIAPLH$:
	.long	602
	.align 4
UUEXIAPLL$:
	.long	603
	.align 4
UUEXIAPLA$:
	.long	604
	.align 4
UUEXIAPLXL$:
	.long	605
	.align 4
UUEXIAPLXH$:
	.long	606
	.align 4
UUEXIAPLYL$:
	.long	607
	.align 4
UUEXIAPLYH$:
	.long	608
	.align 4
UUEXIAPLDL$:
	.long	609
	.align 4
UULDLB$:
	.long	610
	.align 4
UULDLC$:
	.long	611
	.align 4
UULDLD$:
	.long	612
	.align 4
UULDLE$:
	.long	613
	.align 4
UULDLH$:
	.long	614
	.align 4
UULDLL$:
	.long	615
	.align 4
UULDLA$:
	.long	616
	.align 4
UULDLW$:
	.long	617
	.align 4
UULDLZ$:
	.long	618
	.align 4
UULDLS$:
	.long	619
	.align 4
UULDLP$:
	.long	620
	.align 4
UULDLPL$:
	.long	621
	.align 4
UULDLPH$:
	.long	622
	.align 4
UULDLXL$:
	.long	623
	.align 4
UULDLXH$:
	.long	624
	.align 4
UULDLYL$:
	.long	625
	.align 4
UULDLYH$:
	.long	626
	.align 4
UULABDL$:
	.long	627
	.align 4
UULRBDL$:
	.long	628
	.align 4
UULRCDL$:
	.long	629
	.align 4
UULRDDL$:
	.long	630
	.align 4
UULREDL$:
	.long	631
	.align 4
UULRHDL$:
	.long	632
	.align 4
UULRLDL$:
	.long	633
	.align 4
UULRADL$:
	.long	634
	.align 4
UULRWDL$:
	.long	635
	.align 4
UULRZDL$:
	.long	636
	.align 4
UULRSDL$:
	.long	637
	.align 4
UULRPDL$:
	.long	638
	.align 4
UULPLDL$:
	.long	639
	.align 4
UULPHDL$:
	.long	640
	.align 4
UULXLDL$:
	.long	641
	.align 4
UULXHDL$:
	.long	642
	.align 4
UULYLDL$:
	.long	643
	.align 4
UULYHDL$:
	.long	644
	.align 4
UUMW$:
	.long	645
	.align 4
UUMWG$:
	.long	646
	.align 4
UUSBWA$:
	.long	647
	.align 4
UUEXIPLD$:
	.long	648
	.align 4
UUBDL$:
	.long	649
	.align 4
UUBRQAXL$:
	.long	650
	.align 4
UUSWPD$:
	.long	651
	.align 4
UUDWZHB$:
	.long	652
	.align 4
UUBRQAYL$:
	.long	653
	.align 4
UUSBWWA$:
	.long	654
	.align 4
UUWWS$:
	.long	655
	.align 4
UUWWP$:
	.long	656
	.align 4
UUWWPL$:
	.long	657
	.align 4
UUWWPH$:
	.long	658
	.align 4
UUWWW$:
	.long	659
	.align 4
UUWWZ$:
	.long	660
	.align 4
UUWWXL$:
	.long	661
	.align 4
UUWWXH$:
	.long	662
	.align 4
UUWWYL$:
	.long	663
	.align 4
UUWWYH$:
	.long	664
	.align 4
UUDDSZD$:
	.long	665
	.align 4
UUSPS$:
	.long	666
	.align 4
UUADLMR$:
	.long	667
	.align 4
UUADDM$:
	.long	668
	.align 4
UUSBWSA$:
	.long	669
	.align 4
UUHDG$:
	.long	670
	.align 4
UUSBW$:
	.long	671
	.align 4
UULZ00$:
	.long	672
	.align 4
UULZ08$:
	.long	673
	.align 4
UULZ10$:
	.long	674
	.align 4
UULZ18$:
	.long	675
	.align 4
UULZ20$:
	.long	676
	.align 4
UULZ28$:
	.long	677
	.align 4
UULZ30$:
	.long	678
	.align 4
UULZ38$:
	.long	679
	.align 4
UUDSDS$:
	.long	680
	.align 4
UUEXIWW$:
	.long	681
	.align 4
UUSBWASA$:
	.long	682
	.align 4
UUABBT$:
	.long	683
	.align 4
UUDPCDECS$:
	.long	684
	.align 4
UUPSSWBZ$:
	.long	685
	.align 4
UUBRQAPL$:
	.long	686
	.align 4
UUAAPHBC$:
	.long	687
	.align 4
UUOSADDCSG$:
	.long	688
	.align 4
UUEXIWWH$:
	.long	689
	.align 4
UUPSSWZ$:
	.long	690
	.align 4
UUPSSWNZ$:
	.long	691
	.align 4
UUPSSWC$:
	.long	692
	.align 4
UUPSSWNC$:
	.long	693
	.align 4
UUWWF$:
	.long	694
	.align 4
UUDDS$:
	.long	695
	.align 4
UULRFDS$:
	.long	696
	.align 4
UUSBWSAG$:
	.long	697
	.align 4
UUEXIWPNZ$:
	.long	698
	.align 4
UUEXIWPZ$:
	.long	699
	.align 4
UUEXIWPNC$:
	.long	700
	.align 4
UUEXIWPC$:
	.long	701
	.align 4
UUEXIWPPE$:
	.long	702
	.align 4
UUEXIWPPO$:
	.long	703
	.align 4
UUEXIWPP$:
	.long	704
	.align 4
UUEXIWPM$:
	.long	705
	.align 4
UUEXIWWD$:
	.long	706
	.align 4
UUEXIAPCW$:
	.long	707
	.align 4
UUPSSWCNZ$:
	.long	708
	.align 4
UUPSSWCZ$:
	.long	709
	.align 4
UUPSSWCNC$:
	.long	710
	.align 4
UUPSSWCC$:
	.long	711
	.align 4
UUPSSWCPE$:
	.long	712
	.align 4
UUPSSWCPO$:
	.long	713
	.align 4
UUPSSWCP$:
	.long	714
	.align 4
UUPSSWCM$:
	.long	715
	.align 4
UUDSPWD$:
	.long	716
	.align 4
UUSG$:
	.long	717
	.align 4
UURGNZ$:
	.long	718
	.align 4
UURGZ$:
	.long	719
	.align 4
UURGNC$:
	.long	720
	.align 4
UURGC$:
	.long	721
	.align 4
UURGPE$:
	.long	722
	.align 4
UURGPO$:
	.long	723
	.align 4
UURGP$:
	.long	724
	.align 4
UURGM$:
	.long	725
	.align 4
UUPSSWWA$:
	.long	726
	.align 4
UUDWZZD$:
	.long	727
	.align 4
UUADI$:
	.long	728
	.align 4
UUIORS$:
	.long	729
	.align 4
UUWSSW$:
	.long	730
	.align 4
UULATIO$:
	.long	731
	.align 4
UUIORG$:
	.long	732
	.align 4
UUEXIAPCA$:
	.long	733
	.align 4
UUIOWSDA$:
	.long	734
	.align 4
UUIOWG$:
	.long	735
	.align 4
UUOORQ$:
	.long	736
	.align 4
UUIOWSDB$:
	.long	737
	.align 4
UUIOWSDC$:
	.long	738
	.align 4
UUIOWSDD$:
	.long	739
	.align 4
UUIOWSDE$:
	.long	740
	.align 4
UUIOWSDH$:
	.long	741
	.align 4
UUIOWSDL$:
	.long	742
	.align 4
UUIOWSDZ$:
	.long	743
	.align 4
UUSGIH$:
	.long	744
	.align 4
UUSGRH$:
	.long	745
	.align 4
UUSGABI$:
	.long	746
	.align 4
UUSGABR$:
	.long	747
	.align 4
UUOORQI$:
	.long	748
	.align 4
UUOSCF$:
	.long	749
	.align 4
UUOCCF$:
	.long	750
	.align 4
UUODAA$:
	.long	751
	.align 4
UUOCPL$:
	.long	752
	.align 4
UUONEG$:
	.long	753
	.align 4
UUBA$:
	.long	754
	.align 4
UUWWDL$:
	.long	755
	.align 4
UUADL$:
	.long	756
	.align 4
UUADLR$:
	.long	757
	.align 4
UUDLHB$:
	.long	758
	.align 4
UUDLHBR$:
	.long	759
	.align 4
UUOHLAB$:
	.long	760
	.align 4
UUOHLBAF$:
	.long	761
	.align 4
UUBB$:
	.long	762
	.align 4
UUBC$:
	.long	763
	.align 4
UUBD$:
	.long	764
	.align 4
UUBE$:
	.long	765
	.align 4
UUBH$:
	.long	766
	.align 4
UUBL$:
	.long	767
	.align 4
UUBS$:
	.long	768
	.align 4
UUBP$:
	.long	769
	.align 4
UUBXL$:
	.long	770
	.align 4
UUBXH$:
	.long	771
	.align 4
UUBYL$:
	.long	772
	.align 4
UUBYH$:
	.long	773
	.align 4
UUDHLAL$:
	.long	774
	.align 4
UUDIXAL$:
	.long	775
	.align 4
UUDIYAL$:
	.long	776
	.align 4
UUOADD$:
	.long	777
	.align 4
UUOADC$:
	.long	778
	.align 4
UUOSUB$:
	.long	779
	.align 4
UUOSBC$:
	.long	780
	.align 4
UUOINC$:
	.long	781
	.align 4
UUODEC$:
	.long	782
	.align 4
UUOAND$:
	.long	783
	.align 4
UUOXOR$:
	.long	784
	.align 4
UUOOR$:
	.long	785
	.align 4
UUOCP$:
	.long	786
	.align 4
UUAB$:
	.long	787
	.align 4
UUAD$:
	.long	788
	.align 4
UUAH$:
	.long	789
	.align 4
UUAXH$:
	.long	790
	.align 4
UUAYH$:
	.long	791
	.align 4
UUAS$:
	.long	792
	.align 4
UUWZD$:
	.long	793
	.align 4
UUOADDWD$:
	.long	794
	.align 4
UUOADCFQ$:
	.long	795
	.align 4
UUOADCZWD$:
	.long	796
	.align 4
UUOADCZF$:
	.long	797
	.align 4
UUOSBCZWD$:
	.long	798
	.align 4
UUOSBCZF$:
	.long	799
	.align 4
UUSWDH$:
	.long	800
	.align 4
UUDHLOI$:
	.long	801
	.align 4
UUDHLOD$:
	.long	802
	.align 4
UUDPCBD$:
	.long	803
	.align 4
UUDWZOIS$:
	.long	804
	.align 4
UUDWZODS$:
	.long	805
	.align 4
UUBRQFS$:
	.long	806
	.align 4
UUEXIAPCBDL$:
	.long	807
	.align 4
UUBRQGAAF$:
	.long	808
	.align 4
UUEXIAPCBB$:
	.long	809
	.align 4
UUEXIAPCBC$:
	.long	810
	.align 4
UUEXIAPCBD$:
	.long	811
	.align 4
UUEXIAPCBE$:
	.long	812
	.align 4
UUEXIAPCBH$:
	.long	813
	.align 4
UUEXIAPCBL$:
	.long	814
	.align 4
UUEXIAPCBA$:
	.long	815
	.align 4
UUEXIAPCBXL$:
	.long	816
	.align 4
UUEXIAPCBXH$:
	.long	817
	.align 4
UUEXIAPCBYL$:
	.long	818
	.align 4
UUEXIAPCBYH$:
	.long	819
	.align 4
UUORLCF$:
	.long	820
	.align 4
UUORRCF$:
	.long	821
	.align 4
UUORLF$:
	.long	822
	.align 4
UUORRF$:
	.long	823
	.align 4
UUORLC$:
	.long	824
	.align 4
UUORRC$:
	.long	825
	.align 4
UUORL$:
	.long	826
	.align 4
UUORR$:
	.long	827
	.align 4
UUOSLA$:
	.long	828
	.align 4
UUOSRA$:
	.long	829
	.align 4
UUOSLL$:
	.long	830
	.align 4
UUOSRL$:
	.long	831
	.align 4
UUBNM$:
	.long	832
	.align 4
UUBIM$:
	.long	833
	.align 4
UUOORS$:
	.long	834
	.align 4
UUOANDS$:
	.long	835
	.align 4
UUOANDHF$:
	.long	836
	.align 4
UUADBMG$:
	.long	837
	.align 4
UUEXIAPCHW$:
	.long	838
	.align 4
UULATO$:
	.long	839
	.align 4
UUEXMCB$:
	.long	840
.lcomm EDJNZ$,4,4
.lcomm EJRCC$,4,4
.lcomm ECALL$,4,4
.lcomm ERET$,4,4
.lcomm POSA$,8,8
.lcomm POSB$,8,8
.lcomm REGLL3$,4,4
	.text
	.globl	GETPTR
	.def	GETPTR;	.scl	2;	.type	32;	.endef
	.seh_proc	GETPTR
GETPTR:
	push	rbp
	.seh_pushreg	rbp
	mov	rbp, rsp
	.seh_setframe	rbp, 0
	sub	rsp, 16
	.seh_stackalloc	16
	.seh_endprologue
	mov	QWORD PTR 16[rbp], rcx
	mov	QWORD PTR 24[rbp], rdx
	mov	QWORD PTR -8[rbp], 0
.L2:
	sub	QWORD PTR 24[rbp], 1
	mov	rax, QWORD PTR USED$1.4235[rip]
	test	rax, rax
	jne	.L11
	lea	rax, DAT$[rip]
	mov	QWORD PTR MEMCUR$[rip], rax
	jmp	.L8
.L4:
.L11:
	nop
.L5:
.L8:
	mov	rax, QWORD PTR MEMCUR$[rip]
	mov	QWORD PTR V1$1.4232[rip], rax
	mov	rax, QWORD PTR V1$1.4232[rip]
	and	rax, QWORD PTR 24[rbp]
	mov	QWORD PTR V1$1.4232[rip], rax
	mov	rax, QWORD PTR MEMCUR$[rip]
	add	rax, 1
	mov	QWORD PTR MEMCUR$[rip], rax
.L6:
	mov	rax, QWORD PTR V1$1.4232[rip]
	test	rax, rax
	je	.L12
	jmp	.L8
.L12:
	nop
.L7:
	mov	rax, QWORD PTR MEMCUR$[rip]
	sub	rax, 1
	mov	QWORD PTR MEMCUR$[rip], rax
	mov	rax, QWORD PTR MEMCUR$[rip]
	mov	QWORD PTR V2$1.4233[rip], rax
	mov	rdx, QWORD PTR MEMCUR$[rip]
	mov	rax, QWORD PTR 16[rbp]
	add	rax, rdx
	mov	QWORD PTR MEMCUR$[rip], rax
	mov	rax, QWORD PTR MEMCUR$[rip]
	mov	rdx, rax
	lea	rax, DAT$[rip]
	sub	rdx, rax
	mov	rax, rdx
	mov	QWORD PTR USED$1.4235[rip], rax
	mov	rax, QWORD PTR V2$1.4233[rip]
	mov	QWORD PTR -8[rbp], rax
	nop
.L9:
	mov	rax, QWORD PTR -8[rbp]
	add	rsp, 16
	pop	rbp
	ret
	.seh_endproc
	.section .rdata,"dr"
.LC0:
	.ascii "EMU_OPCODES.EXT\0"
.LC1:
	.ascii "rb\0"
.LC2:
	.ascii "_\0"
.LC3:
	.ascii "!\0"
	.text
	.globl	MNEM
	.def	MNEM;	.scl	2;	.type	32;	.endef
	.seh_proc	MNEM
MNEM:
	push	rbp
	.seh_pushreg	rbp
	mov	rbp, rsp
	.seh_setframe	rbp, 0
	sub	rsp, 160
	.seh_stackalloc	160
	.seh_endprologue
	mov	DWORD PTR 16[rbp], ecx
	lea	rax, -112[rbp]
	mov	QWORD PTR [rax], 0
	mov	QWORD PTR 8[rax], 0
	mov	QWORD PTR 16[rax], 0
.L14:
	mov	eax, DWORD PTR SCAN$1.4250[rip]
	test	eax, eax
	jne	.L38
	nop
.L16:
	mov	DWORD PTR SCAN$1.4250[rip], 1
	mov	edx, 33
	mov	ecx, 32768
	call	fb_StrFill1
	mov	QWORD PTR -8[rbp], rax
	mov	rax, QWORD PTR -8[rbp]
	mov	DWORD PTR 32[rsp], 0
	mov	r9, -1
	mov	r8, rax
	mov	rdx, -1
	lea	rcx, M$1.4258[rip]
	call	fb_StrAssign
	mov	DWORD PTR 32[rsp], 0
	mov	r9d, 16
	lea	r8, .LC0[rip]
	mov	rdx, -1
	lea	rcx, F$1.4257[rip]
	call	fb_StrAssign
.L18:
	lea	rax, F$1.4257[rip]
	mov	rax, QWORD PTR [rax]
	lea	rdx, .LC1[rip]
	mov	rcx, rax
	call	fopen
	mov	QWORD PTR -16[rbp], rax
	mov	rax, QWORD PTR -16[rbp]
	mov	QWORD PTR FILEPTR$1.4259[rip], rax
	lea	rax, F$1.4257[rip]
	mov	rax, QWORD PTR [rax]
	mov	rcx, rax
	call	fb_FileLen
	mov	QWORD PTR -24[rbp], rax
	mov	rcx, QWORD PTR FILEPTR$1.4259[rip]
	mov	rdx, QWORD PTR -24[rbp]
	lea	rax, M$1.4258[rip]
	mov	rax, QWORD PTR [rax]
	mov	r9, rcx
	mov	r8d, 1
	mov	rcx, rax
	call	fread
	mov	QWORD PTR -32[rbp], rax
	mov	rax, QWORD PTR -32[rbp]
	mov	DWORD PTR T1$1.4251[rip], eax
	mov	rax, QWORD PTR FILEPTR$1.4259[rip]
	mov	rcx, rax
	call	fclose
	mov	DWORD PTR T1$1.4251[rip], 0
.L19:
	mov	DWORD PTR T2$1.4252[rip], 0
.L20:
	mov	DWORD PTR T4$1.4254[rip], 0
	mov	DWORD PTR T5$1.4255[rip], 0
.L21:
	mov	eax, DWORD PTR T3$1.4253[rip]
	mov	edx, eax
	mov	eax, DWORD PTR T4$1.4254[rip]
	mov	eax, eax
	add	rax, rdx
	mov	r8d, 1
	mov	rdx, rax
	lea	rcx, M$1.4258[rip]
	call	fb_StrMid
	mov	QWORD PTR -40[rbp], rax
	mov	rax, QWORD PTR -40[rbp]
	mov	r9d, 2
	lea	r8, .LC2[rip]
	mov	rdx, -1
	mov	rcx, rax
	call	fb_StrCompare
	mov	DWORD PTR -44[rbp], eax
	cmp	DWORD PTR -44[rbp], 0
	jne	.L39
	mov	DWORD PTR T5$1.4255[rip], 1
	jmp	.L24
.L39:
	nop
.L23:
	mov	eax, DWORD PTR T4$1.4254[rip]
	add	eax, 1
	mov	DWORD PTR T4$1.4254[rip], eax
.L24:
	mov	eax, DWORD PTR T3$1.4253[rip]
	mov	edx, eax
	mov	eax, DWORD PTR T4$1.4254[rip]
	mov	eax, eax
	add	rax, rdx
	mov	r8d, 1
	mov	rdx, rax
	lea	rcx, M$1.4258[rip]
	call	fb_StrMid
	mov	QWORD PTR -56[rbp], rax
	mov	rax, QWORD PTR -56[rbp]
	mov	r9d, 2
	lea	r8, .LC3[rip]
	mov	rdx, -1
	mov	rcx, rax
	call	fb_StrCompare
	mov	DWORD PTR -60[rbp], eax
	cmp	DWORD PTR -60[rbp], 0
	je	.L40
	nop
.L26:
.L27:
	mov	eax, DWORD PTR T5$1.4255[rip]
	test	eax, eax
	jne	.L41
	jmp	.L21
.L41:
	nop
.L28:
	mov	eax, DWORD PTR T1$1.4251[rip]
	mov	eax, eax
	sal	rax, 8
	mov	edx, eax
	mov	eax, DWORD PTR T2$1.4252[rip]
	add	eax, edx
	mov	DWORD PTR T6$1.4256[rip], eax
	mov	eax, DWORD PTR T6$1.4256[rip]
	mov	eax, eax
	lea	rdx, 0[0+rax*4]
	lea	rax, XMNEM$1.4246[rip]
	add	rax, rdx
	mov	rdx, rax
	mov	eax, DWORD PTR T3$1.4253[rip]
	mov	DWORD PTR [rdx], eax
	mov	eax, DWORD PTR T6$1.4256[rip]
	mov	eax, eax
	lea	rdx, 0[0+rax*4]
	lea	rax, XMLEN$1.4248[rip]
	add	rax, rdx
	mov	rdx, rax
	mov	eax, DWORD PTR T4$1.4254[rip]
	mov	DWORD PTR [rdx], eax
	mov	edx, DWORD PTR T3$1.4253[rip]
	mov	eax, DWORD PTR T4$1.4254[rip]
	add	eax, edx
	add	eax, 3
	mov	DWORD PTR T3$1.4253[rip], eax
.L29:
	mov	eax, DWORD PTR T2$1.4252[rip]
	add	eax, 1
	mov	DWORD PTR T2$1.4252[rip], eax
.L30:
	mov	eax, DWORD PTR T2$1.4252[rip]
	cmp	eax, 255
	ja	.L42
	jmp	.L20
.L31:
.L42:
	nop
.L32:
	mov	eax, DWORD PTR T1$1.4251[rip]
	add	eax, 1
	mov	DWORD PTR T1$1.4251[rip], eax
.L33:
	mov	eax, DWORD PTR T1$1.4251[rip]
	cmp	eax, 7
	ja	.L43
	jmp	.L19
.L17:
.L38:
	nop
	jmp	.L34
.L40:
	nop
	jmp	.L34
.L43:
	nop
.L34:
	mov	eax, DWORD PTR 16[rbp]
	lea	rdx, 0[0+rax*4]
	lea	rax, XMLEN$1.4248[rip]
	add	rax, rdx
	mov	eax, DWORD PTR [rax]
	mov	ecx, eax
	mov	eax, DWORD PTR 16[rbp]
	lea	rdx, 0[0+rax*4]
	lea	rax, XMNEM$1.4246[rip]
	add	rax, rdx
	mov	eax, DWORD PTR [rax]
	mov	eax, eax
	mov	r8, rcx
	mov	rdx, rax
	lea	rcx, M$1.4258[rip]
	call	fb_StrMid
	mov	QWORD PTR -72[rbp], rax
	mov	rdx, QWORD PTR -72[rbp]
	lea	rax, -112[rbp]
	mov	DWORD PTR 32[rsp], 0
	mov	r9, -1
	mov	r8, rdx
	mov	rdx, -1
	mov	rcx, rax
	call	fb_StrInit
	nop
.L35:
	lea	rax, -112[rbp]
	mov	rcx, rax
	call	fb_StrAllocTempResult
	mov	QWORD PTR -80[rbp], rax
	mov	rax, QWORD PTR -80[rbp]
	add	rsp, 160
	pop	rbp
	ret
	.seh_endproc
	.section .rdata,"dr"
.LC4:
	.ascii "EMU_UOPS.EXT\0"
	.text
	.globl	UOPS
	.def	UOPS;	.scl	2;	.type	32;	.endef
	.seh_proc	UOPS
UOPS:
	push	rbp
	.seh_pushreg	rbp
	mov	rbp, rsp
	.seh_setframe	rbp, 0
	sub	rsp, 192
	.seh_stackalloc	192
	.seh_endprologue
	mov	DWORD PTR 16[rbp], ecx
	lea	rax, -144[rbp]
	mov	QWORD PTR [rax], 0
	mov	QWORD PTR 8[rax], 0
	mov	QWORD PTR 16[rax], 0
.L45:
	mov	eax, DWORD PTR SCAN$1.4297[rip]
	test	eax, eax
	jne	.L72
	nop
.L47:
	mov	DWORD PTR SCAN$1.4297[rip], 1
	mov	edx, 33
	mov	ecx, 32768
	call	fb_StrFill1
	mov	QWORD PTR -8[rbp], rax
	mov	rax, QWORD PTR -8[rbp]
	mov	DWORD PTR 32[rsp], 0
	mov	r9, -1
	mov	r8, rax
	mov	rdx, -1
	lea	rcx, U$1.4305[rip]
	call	fb_StrAssign
	mov	DWORD PTR 32[rsp], 0
	mov	r9d, 13
	lea	r8, .LC4[rip]
	mov	rdx, -1
	lea	rcx, F$1.4304[rip]
	call	fb_StrAssign
.L49:
	lea	rax, F$1.4304[rip]
	mov	rax, QWORD PTR [rax]
	lea	rdx, .LC1[rip]
	mov	rcx, rax
	call	fopen
	mov	QWORD PTR -16[rbp], rax
	mov	rax, QWORD PTR -16[rbp]
	mov	QWORD PTR FILEPTR$1.4306[rip], rax
	lea	rax, F$1.4304[rip]
	mov	rax, QWORD PTR [rax]
	mov	rcx, rax
	call	fb_FileLen
	mov	QWORD PTR -24[rbp], rax
	mov	rcx, QWORD PTR FILEPTR$1.4306[rip]
	mov	rdx, QWORD PTR -24[rbp]
	lea	rax, U$1.4305[rip]
	mov	rax, QWORD PTR [rax]
	mov	r9, rcx
	mov	r8d, 1
	mov	rcx, rax
	call	fread
	mov	QWORD PTR -32[rbp], rax
	mov	rax, QWORD PTR -32[rbp]
	mov	DWORD PTR T1$1.4298[rip], eax
	mov	rax, QWORD PTR FILEPTR$1.4306[rip]
	mov	rcx, rax
	call	fclose
	mov	DWORD PTR T3$1.4300[rip], 1
.L50:
	mov	DWORD PTR T2$1.4299[rip], 0
	mov	DWORD PTR T5$1.4302[rip], 1
.L51:
	mov	eax, DWORD PTR T3$1.4300[rip]
	mov	edx, eax
	mov	eax, DWORD PTR T2$1.4299[rip]
	mov	eax, eax
	add	rax, rdx
	mov	r8d, 1
	mov	rdx, rax
	lea	rcx, U$1.4305[rip]
	call	fb_StrMid
	mov	QWORD PTR -40[rbp], rax
	mov	rax, QWORD PTR -40[rbp]
	mov	r9d, 2
	lea	r8, .LC2[rip]
	mov	rdx, -1
	mov	rcx, rax
	call	fb_StrCompare
	mov	DWORD PTR -44[rbp], eax
	cmp	DWORD PTR -44[rbp], 0
	jne	.L73
	mov	DWORD PTR T5$1.4302[rip], 0
	mov	eax, DWORD PTR T2$1.4299[rip]
	mov	edx, eax
	mov	eax, DWORD PTR T3$1.4300[rip]
	mov	eax, eax
	mov	r8, rdx
	mov	rdx, rax
	lea	rcx, U$1.4305[rip]
	call	fb_StrMid
	mov	QWORD PTR -56[rbp], rax
	mov	rax, QWORD PTR -56[rbp]
	mov	rcx, rax
	call	fb_VAL
	vmovq	rax, xmm0
	mov	QWORD PTR -64[rbp], rax
	vmovsd	xmm1, QWORD PTR -64[rbp]
	vroundsd	xmm0, xmm1, xmm1, 12
	vcvttsd2si	rax, xmm0
	mov	DWORD PTR T4$1.4301[rip], eax
	jmp	.L55
.L73:
	nop
.L53:
	mov	eax, DWORD PTR T2$1.4299[rip]
	add	eax, 1
	mov	DWORD PTR T2$1.4299[rip], eax
.L54:
.L55:
	mov	eax, DWORD PTR T5$1.4302[rip]
	test	eax, eax
	je	.L74
	jmp	.L51
.L74:
	nop
.L56:
	mov	edx, DWORD PTR T3$1.4300[rip]
	mov	eax, DWORD PTR T2$1.4299[rip]
	add	eax, edx
	add	eax, 1
	mov	DWORD PTR T3$1.4300[rip], eax
	mov	DWORD PTR T2$1.4299[rip], 0
	mov	DWORD PTR T5$1.4302[rip], 1
.L57:
	mov	eax, DWORD PTR T2$1.4299[rip]
	mov	edx, eax
	mov	eax, DWORD PTR T3$1.4300[rip]
	mov	eax, eax
	add	rax, rdx
	mov	r8d, 1
	mov	rdx, rax
	lea	rcx, U$1.4305[rip]
	call	fb_StrMid
	mov	QWORD PTR -72[rbp], rax
	mov	rax, QWORD PTR -72[rbp]
	mov	r9d, 2
	lea	r8, .LC2[rip]
	mov	rdx, -1
	mov	rcx, rax
	call	fb_StrCompare
	mov	DWORD PTR -76[rbp], eax
	cmp	DWORD PTR -76[rbp], 0
	jne	.L75
	mov	DWORD PTR T5$1.4302[rip], 0
	jmp	.L61
.L75:
	nop
.L59:
	mov	eax, DWORD PTR T2$1.4299[rip]
	add	eax, 1
	mov	DWORD PTR T2$1.4299[rip], eax
.L60:
.L61:
	mov	eax, DWORD PTR T5$1.4302[rip]
	test	eax, eax
	je	.L76
	jmp	.L57
.L76:
	nop
.L62:
	mov	eax, DWORD PTR T4$1.4301[rip]
	mov	eax, eax
	lea	rdx, 0[0+rax*4]
	lea	rax, UOPN$1.4293[rip]
	add	rax, rdx
	mov	rdx, rax
	mov	eax, DWORD PTR T3$1.4300[rip]
	mov	DWORD PTR [rdx], eax
	mov	eax, DWORD PTR T4$1.4301[rip]
	mov	eax, eax
	lea	rdx, 0[0+rax*4]
	lea	rax, UOPL$1.4295[rip]
	add	rax, rdx
	mov	rdx, rax
	mov	eax, DWORD PTR T2$1.4299[rip]
	mov	DWORD PTR [rdx], eax
	mov	edx, DWORD PTR T3$1.4300[rip]
	mov	eax, DWORD PTR T2$1.4299[rip]
	add	eax, edx
	add	eax, 3
	mov	DWORD PTR T3$1.4300[rip], eax
	mov	eax, DWORD PTR T3$1.4300[rip]
	mov	eax, eax
	mov	r8d, 1
	mov	rdx, rax
	lea	rcx, U$1.4305[rip]
	call	fb_StrMid
	mov	QWORD PTR -88[rbp], rax
	mov	rax, QWORD PTR -88[rbp]
	mov	r9d, 2
	lea	r8, .LC3[rip]
	mov	rdx, -1
	mov	rcx, rax
	call	fb_StrCompare
	mov	DWORD PTR -92[rbp], eax
	cmp	DWORD PTR -92[rbp], 0
	jne	.L77
	mov	DWORD PTR T1$1.4298[rip], 0
	jmp	.L66
.L64:
.L65:
.L77:
	nop
.L66:
	mov	eax, DWORD PTR T1$1.4298[rip]
	test	eax, eax
	je	.L78
	jmp	.L50
.L48:
.L72:
	nop
	jmp	.L67
.L78:
	nop
.L67:
	mov	eax, DWORD PTR 16[rbp]
	lea	rdx, 0[0+rax*4]
	lea	rax, UOPL$1.4295[rip]
	add	rax, rdx
	mov	eax, DWORD PTR [rax]
	mov	ecx, eax
	mov	eax, DWORD PTR 16[rbp]
	lea	rdx, 0[0+rax*4]
	lea	rax, UOPN$1.4293[rip]
	add	rax, rdx
	mov	eax, DWORD PTR [rax]
	mov	eax, eax
	mov	r8, rcx
	mov	rdx, rax
	lea	rcx, U$1.4305[rip]
	call	fb_StrMid
	mov	QWORD PTR -104[rbp], rax
	mov	rdx, QWORD PTR -104[rbp]
	lea	rax, -144[rbp]
	mov	DWORD PTR 32[rsp], 0
	mov	r9, -1
	mov	r8, rdx
	mov	rdx, -1
	mov	rcx, rax
	call	fb_StrInit
	nop
.L68:
	lea	rax, -144[rbp]
	mov	rcx, rax
	call	fb_StrAllocTempResult
	mov	QWORD PTR -112[rbp], rax
	mov	rax, QWORD PTR -112[rbp]
	add	rsp, 192
	pop	rbp
	ret
	.seh_endproc
	.globl	SCRSHOW
	.def	SCRSHOW;	.scl	2;	.type	32;	.endef
	.seh_proc	SCRSHOW
SCRSHOW:
	push	rbp
	.seh_pushreg	rbp
	mov	rbp, rsp
	.seh_setframe	rbp, 0
	sub	rsp, 160
	.seh_stackalloc	160
	.seh_endprologue
	mov	DWORD PTR 16[rbp], ecx
	mov	DWORD PTR 24[rbp], edx
	mov	DWORD PTR 32[rbp], r8d
.L80:
	mov	eax, DWORD PTR LUTDONE$1.4346[rip]
	cmp	eax, 555
	je	.L408
	nop
.L82:
.L84:
	mov	edx, 32
	mov	ecx, 6144
	call	GETPTR
	mov	QWORD PTR -8[rbp], rax
	mov	rax, QWORD PTR -8[rbp]
	mov	QWORD PTR PLIN$1.4352[rip], rax
	mov	edx, 32
	mov	ecx, 2048
	call	GETPTR
	mov	QWORD PTR -16[rbp], rax
	mov	rax, QWORD PTR -16[rbp]
	mov	QWORD PTR PUNF$1.4351[rip], rax
	mov	edx, 32
	mov	ecx, 65536
	call	GETPTR
	mov	QWORD PTR -24[rbp], rax
	mov	rax, QWORD PTR -24[rbp]
	mov	QWORD PTR PBTB$1.4353[rip], rax
	mov	edx, 32
	mov	ecx, 393472
	call	GETPTR
	mov	QWORD PTR -32[rbp], rax
	mov	rax, QWORD PTR -32[rbp]
	mov	QWORD PTR PBLR$1.4358[rip], rax
	mov	edx, 32
	mov	ecx, 32768
	call	GETPTR
	mov	QWORD PTR -40[rbp], rax
	mov	rax, QWORD PTR -40[rbp]
	mov	QWORD PTR PCLIM$1.4354[rip], rax
	mov	edx, 32
	mov	ecx, 32768
	call	GETPTR
	mov	QWORD PTR -48[rbp], rax
	mov	rax, QWORD PTR -48[rbp]
	mov	QWORD PTR PPLIM$1.4355[rip], rax
	mov	edx, 32
	mov	ecx, 32768
	call	GETPTR
	mov	QWORD PTR -56[rbp], rax
	mov	rax, QWORD PTR -56[rbp]
	mov	QWORD PTR PMLIM$1.4356[rip], rax
	mov	edx, 32
	mov	ecx, 128
	call	GETPTR
	mov	QWORD PTR -64[rbp], rax
	mov	rax, QWORD PTR -64[rbp]
	mov	QWORD PTR PPTOC$1.4357[rip], rax
	mov	edx, 32
	mov	ecx, 524288
	call	GETPTR
	mov	QWORD PTR -72[rbp], rax
	mov	rax, QWORD PTR -72[rbp]
	mov	QWORD PTR PPQM$1.4359[rip], rax
	mov	edx, 32
	mov	ecx, 32768
	call	GETPTR
	mov	QWORD PTR -80[rbp], rax
	mov	rax, QWORD PTR -80[rbp]
	mov	QWORD PTR PQPX$1.4360[rip], rax
	mov	edx, 32
	mov	ecx, 524288
	call	GETPTR
	mov	QWORD PTR -88[rbp], rax
	mov	rax, QWORD PTR -88[rbp]
	mov	QWORD PTR PQPL$1.4361[rip], rax
	mov	edx, 32
	mov	ecx, 200704
	call	GETPTR
	mov	QWORD PTR -96[rbp], rax
	mov	rax, QWORD PTR -96[rbp]
	mov	QWORD PTR PSS$1.4362[rip], rax
	mov	edx, 32
	mov	ecx, 4096
	call	GETPTR
	mov	QWORD PTR -104[rbp], rax
	mov	rax, QWORD PTR -104[rbp]
	mov	QWORD PTR PPAT$1.4363[rip], rax
	mov	edx, 32
	mov	ecx, 8192
	call	GETPTR
	mov	QWORD PTR -112[rbp], rax
	mov	rax, QWORD PTR -112[rbp]
	mov	QWORD PTR PPATR$1.4364[rip], rax
	nop
.L85:
.L86:
.L87:
.L88:
.L89:
.L90:
.L91:
.L92:
	mov	DWORD PTR LUTDONE$1.4346[rip], 555
	mov	DWORD PTR T6$2.4427[rip], 0
.L93:
	mov	DWORD PTR T0$2.4423[rip], 0
	mov	DWORD PTR T1$2.4424[rip], 0
	mov	DWORD PTR T2$2.4425[rip], 0
	mov	eax, DWORD PTR T6$2.4427[rip]
	mov	eax, eax
	and	eax, 8
	test	rax, rax
	je	.L409
	mov	DWORD PTR T7$2.4426[rip], 255
	mov	DWORD PTR T8$2.4428[rip], 8
	jmp	.L96
.L409:
	nop
.L95:
	mov	eax, DWORD PTR BBASE$[rip]
	mov	DWORD PTR T7$2.4426[rip], eax
	mov	DWORD PTR T8$2.4428[rip], 0
.L96:
	mov	eax, DWORD PTR T6$2.4427[rip]
	mov	eax, eax
	and	eax, 1
	test	rax, rax
	je	.L410
	mov	eax, DWORD PTR T7$2.4426[rip]
	mov	DWORD PTR T0$2.4423[rip], eax
	mov	eax, DWORD PTR T8$2.4428[rip]
	add	eax, 1
	mov	DWORD PTR T8$2.4428[rip], eax
	jmp	.L98
.L410:
	nop
.L98:
	mov	eax, DWORD PTR T6$2.4427[rip]
	mov	eax, eax
	and	eax, 2
	test	rax, rax
	je	.L411
	mov	eax, DWORD PTR T7$2.4426[rip]
	mov	DWORD PTR T1$2.4424[rip], eax
	mov	eax, DWORD PTR T8$2.4428[rip]
	add	eax, 4
	mov	DWORD PTR T8$2.4428[rip], eax
	jmp	.L100
.L411:
	nop
.L100:
	mov	eax, DWORD PTR T6$2.4427[rip]
	mov	eax, eax
	and	eax, 4
	test	rax, rax
	je	.L412
	mov	eax, DWORD PTR T7$2.4426[rip]
	mov	DWORD PTR T2$2.4425[rip], eax
	mov	eax, DWORD PTR T8$2.4428[rip]
	add	eax, 2
	mov	DWORD PTR T8$2.4428[rip], eax
	jmp	.L102
.L412:
	nop
.L102:
	mov	eax, DWORD PTR T2$2.4425[rip]
	mov	eax, eax
	sal	rax, 32
	mov	rdx, rax
	mov	eax, DWORD PTR T1$2.4424[rip]
	mov	eax, eax
	sal	rax, 16
	add	rax, rdx
	mov	edx, DWORD PTR T0$2.4423[rip]
	mov	edx, edx
	add	rdx, rax
	mov	rax, QWORD PTR PPTOC$1.4357[rip]
	mov	ecx, DWORD PTR T8$2.4428[rip]
	mov	ecx, ecx
	sal	rcx, 3
	add	rax, rcx
	mov	QWORD PTR [rax], rdx
.L103:
	mov	eax, DWORD PTR T6$2.4427[rip]
	add	eax, 1
	mov	DWORD PTR T6$2.4427[rip], eax
.L104:
	mov	eax, DWORD PTR T6$2.4427[rip]
	cmp	eax, 15
	ja	.L413
	jmp	.L93
.L105:
.L106:
.L107:
.L413:
	nop
.L108:
	mov	DWORD PTR TI$2.4441[rip], 0
	mov	DWORD PTR PPL$2.4442[rip], 0
.L109:
	mov	DWORD PTR DDT$2.4443[rip], 0
.L110:
	mov	eax, DWORD PTR SWBW$1.4349[rip]
	test	eax, eax
	je	.L414
	mov	DWORD PTR CURC$2.4445[rip], 7
	jmp	.L113
.L414:
	nop
.L112:
	mov	eax, DWORD PTR PPL$2.4442[rip]
	shr	eax, 3
	mov	DWORD PTR CURC$2.4445[rip], eax
.L113:
	mov	eax, DWORD PTR CURC$2.4445[rip]
	and	eax, 7
	mov	DWORD PTR INKC$2.4449[rip], eax
	mov	eax, DWORD PTR CURC$2.4445[rip]
	shr	eax, 3
	and	eax, 7
	mov	DWORD PTR PAPC$2.4450[rip], eax
	mov	eax, DWORD PTR CURC$2.4445[rip]
	mov	eax, eax
	and	eax, 64
	test	rax, rax
	je	.L415
	mov	eax, DWORD PTR INKC$2.4449[rip]
	add	eax, 8
	mov	DWORD PTR INKC$2.4449[rip], eax
	mov	eax, DWORD PTR PAPC$2.4450[rip]
	add	eax, 8
	mov	DWORD PTR PAPC$2.4450[rip], eax
	jmp	.L115
.L415:
	nop
.L115:
	mov	eax, DWORD PTR CURC$2.4445[rip]
	mov	eax, eax
	and	eax, 128
	test	rax, rax
	je	.L416
	mov	eax, DWORD PTR INKC$2.4449[rip]
	mov	DWORD PTR CURC$2.4445[rip], eax
	mov	eax, DWORD PTR PAPC$2.4450[rip]
	mov	DWORD PTR INKC$2.4449[rip], eax
	mov	eax, DWORD PTR CURC$2.4445[rip]
	mov	DWORD PTR PAPC$2.4450[rip], eax
	jmp	.L117
.L416:
	nop
.L117:
	mov	DWORD PTR SHC$2.4444[rip], 0
	mov	DWORD PTR MSK$2.4448[rip], 1
	mov	DWORD PTR DX$2.4447[rip], 0
.L118:
	mov	edx, DWORD PTR DDT$2.4443[rip]
	mov	eax, DWORD PTR MSK$2.4448[rip]
	and	eax, edx
	test	eax, eax
	je	.L417
	mov	eax, DWORD PTR INKC$2.4449[rip]
	mov	DWORD PTR RES$2.4446[rip], eax
	jmp	.L121
.L417:
	nop
.L120:
	mov	eax, DWORD PTR PAPC$2.4450[rip]
	mov	DWORD PTR RES$2.4446[rip], eax
.L121:
	mov	eax, DWORD PTR SHC$2.4444[rip]
	shr	eax, 4
	mov	DWORD PTR SHC$2.4444[rip], eax
	mov	eax, DWORD PTR RES$2.4446[rip]
	mov	eax, eax
	sal	rax, 28
	mov	edx, eax
	mov	eax, DWORD PTR SHC$2.4444[rip]
	or	eax, edx
	mov	DWORD PTR SHC$2.4444[rip], eax
	mov	eax, DWORD PTR MSK$2.4448[rip]
	add	eax, eax
	mov	DWORD PTR MSK$2.4448[rip], eax
.L122:
	mov	eax, DWORD PTR DX$2.4447[rip]
	add	eax, 1
	mov	DWORD PTR DX$2.4447[rip], eax
.L123:
	mov	eax, DWORD PTR DX$2.4447[rip]
	cmp	eax, 7
	ja	.L418
	jmp	.L118
.L418:
	nop
.L124:
	mov	rax, QWORD PTR PQPL$1.4361[rip]
	mov	edx, DWORD PTR TI$2.4441[rip]
	mov	edx, edx
	sal	rdx, 2
	add	rdx, rax
	mov	eax, DWORD PTR SHC$2.4444[rip]
	mov	DWORD PTR [rdx], eax
	mov	eax, DWORD PTR TI$2.4441[rip]
	add	eax, 1
	mov	DWORD PTR TI$2.4441[rip], eax
.L125:
	mov	eax, DWORD PTR DDT$2.4443[rip]
	add	eax, 1
	mov	DWORD PTR DDT$2.4443[rip], eax
.L126:
	mov	eax, DWORD PTR DDT$2.4443[rip]
	cmp	eax, 255
	ja	.L419
	jmp	.L110
.L127:
.L419:
	nop
.L128:
	mov	eax, DWORD PTR PPL$2.4442[rip]
	add	eax, 8
	mov	DWORD PTR PPL$2.4442[rip], eax
.L129:
	mov	eax, DWORD PTR PPL$2.4442[rip]
	cmp	eax, 2047
	ja	.L420
	jmp	.L109
.L130:
.L131:
.L132:
.L420:
	nop
.L133:
	mov	DWORD PTR TI$2.4472[rip], 0
	mov	DWORD PTR C1$2.4476[rip], 0
.L134:
	mov	DWORD PTR C2$2.4477[rip], 0
.L135:
	mov	DWORD PTR C3$2.4478[rip], 0
.L136:
	mov	DWORD PTR C4$2.4479[rip], 0
.L137:
	mov	rax, QWORD PTR PPTOC$1.4357[rip]
	mov	edx, DWORD PTR C4$2.4479[rip]
	mov	edx, edx
	sal	rdx, 3
	add	rax, rdx
	mov	rdx, QWORD PTR [rax]
	mov	rax, QWORD PTR PPTOC$1.4357[rip]
	mov	ecx, DWORD PTR C3$2.4478[rip]
	mov	ecx, ecx
	sal	rcx, 3
	add	rax, rcx
	mov	rax, QWORD PTR [rax]
	add	rdx, rax
	mov	rax, QWORD PTR PPTOC$1.4357[rip]
	mov	ecx, DWORD PTR C2$2.4477[rip]
	mov	ecx, ecx
	sal	rcx, 3
	add	rax, rcx
	mov	rax, QWORD PTR [rax]
	add	rdx, rax
	mov	rax, QWORD PTR PPTOC$1.4357[rip]
	mov	ecx, DWORD PTR C1$2.4476[rip]
	mov	ecx, ecx
	sal	rcx, 3
	add	rax, rcx
	mov	rax, QWORD PTR [rax]
	add	rax, rdx
	mov	QWORD PTR QMX$2.4480[rip], rax
	mov	rax, QWORD PTR QMX$2.4480[rip]
	shr	rax, 32
	movzx	eax, ax
	test	rax, rax
	js	.L138
	vcvtsi2sd	xmm0, xmm0, rax
	jmp	.L139
.L138:
	mov	rdx, rax
	shr	rdx
	and	eax, 1
	or	rdx, rax
	vcvtsi2sd	xmm0, xmm0, rdx
	vaddsd	xmm0, xmm0, xmm0
.L139:
	vmovss	xmm1, DWORD PTR DIVA$[rip]
	vcvtss2sd	xmm1, xmm1, xmm1
	vdivsd	xmm0, xmm0, xmm1
	vroundsd	xmm0, xmm0, xmm0, 12
	vcvttsd2si	rax, xmm0
	mov	DWORD PTR ER$2.4473[rip], eax
	mov	rax, QWORD PTR QMX$2.4480[rip]
	shr	rax, 16
	movzx	eax, ax
	test	rax, rax
	js	.L140
	vcvtsi2sd	xmm0, xmm0, rax
	jmp	.L141
.L140:
	mov	rdx, rax
	shr	rdx
	and	eax, 1
	or	rdx, rax
	vcvtsi2sd	xmm0, xmm0, rdx
	vaddsd	xmm0, xmm0, xmm0
.L141:
	vmovss	xmm1, DWORD PTR DIVA$[rip]
	vcvtss2sd	xmm1, xmm1, xmm1
	vdivsd	xmm0, xmm0, xmm1
	vroundsd	xmm0, xmm0, xmm0, 12
	vcvttsd2si	rax, xmm0
	mov	DWORD PTR EG$2.4474[rip], eax
	mov	rax, QWORD PTR QMX$2.4480[rip]
	movzx	eax, ax
	test	rax, rax
	js	.L142
	vcvtsi2sd	xmm0, xmm0, rax
	jmp	.L143
.L142:
	mov	rdx, rax
	shr	rdx
	and	eax, 1
	or	rdx, rax
	vcvtsi2sd	xmm0, xmm0, rdx
	vaddsd	xmm0, xmm0, xmm0
.L143:
	vmovss	xmm1, DWORD PTR DIVA$[rip]
	vcvtss2sd	xmm1, xmm1, xmm1
	vdivsd	xmm0, xmm0, xmm1
	vroundsd	xmm0, xmm0, xmm0, 12
	vcvttsd2si	rax, xmm0
	mov	DWORD PTR EB$2.4475[rip], eax
	mov	eax, DWORD PTR ER$2.4473[rip]
	mov	eax, eax
	sal	rax, 32
	mov	rdx, rax
	mov	eax, DWORD PTR EG$2.4474[rip]
	mov	eax, eax
	sal	rax, 16
	or	rax, rdx
	mov	edx, DWORD PTR EB$2.4475[rip]
	mov	edx, edx
	or	rdx, rax
	mov	rax, QWORD PTR PPQM$1.4359[rip]
	mov	ecx, DWORD PTR TI$2.4472[rip]
	mov	ecx, ecx
	sal	rcx, 3
	add	rax, rcx
	mov	QWORD PTR [rax], rdx
	mov	eax, DWORD PTR TI$2.4472[rip]
	add	eax, 1
	mov	DWORD PTR TI$2.4472[rip], eax
.L144:
	mov	eax, DWORD PTR C4$2.4479[rip]
	add	eax, 1
	mov	DWORD PTR C4$2.4479[rip], eax
.L145:
	mov	eax, DWORD PTR C4$2.4479[rip]
	cmp	eax, 15
	ja	.L421
	jmp	.L137
.L146:
.L421:
	nop
.L147:
	mov	eax, DWORD PTR C3$2.4478[rip]
	add	eax, 1
	mov	DWORD PTR C3$2.4478[rip], eax
.L148:
	mov	eax, DWORD PTR C3$2.4478[rip]
	cmp	eax, 15
	ja	.L422
	jmp	.L136
.L149:
.L422:
	nop
.L150:
	mov	eax, DWORD PTR C2$2.4477[rip]
	add	eax, 1
	mov	DWORD PTR C2$2.4477[rip], eax
.L151:
	mov	eax, DWORD PTR C2$2.4477[rip]
	cmp	eax, 15
	ja	.L423
	jmp	.L135
.L152:
.L423:
	nop
.L153:
	mov	eax, DWORD PTR C1$2.4476[rip]
	add	eax, 1
	mov	DWORD PTR C1$2.4476[rip], eax
.L154:
	mov	eax, DWORD PTR C1$2.4476[rip]
	cmp	eax, 15
	ja	.L424
	jmp	.L134
.L155:
.L156:
.L157:
.L424:
	nop
.L158:
	mov	rax, QWORD PTR PCLIM$1.4354[rip]
	mov	QWORD PTR XLP$2.4506[rip], rax
	mov	rax, QWORD PTR PPLIM$1.4355[rip]
	mov	QWORD PTR YLP$2.4507[rip], rax
	mov	rax, QWORD PTR PMLIM$1.4356[rip]
	mov	QWORD PTR MLP$2.4508[rip], rax
	mov	WORD PTR UC1$2.4504[rip], 0
.L159:
	movzx	eax, WORD PTR UC1$2.4504[rip]
	movzx	eax, ax
	vcvtsi2sd	xmm0, xmm0, rax
	vmovss	xmm1, DWORD PTR DIVB$[rip]
	vcvtss2sd	xmm1, xmm1, xmm1
	vdivsd	xmm0, xmm0, xmm1
	vroundsd	xmm0, xmm0, xmm0, 12
	vcvttsd2si	eax, xmm0
	mov	WORD PTR UC2$2.4505[rip], ax
	movzx	eax, WORD PTR UC2$2.4505[rip]
	cmp	ax, 255
	ja	.L425
	mov	rax, QWORD PTR XLP$2.4506[rip]
	movzx	edx, WORD PTR UC2$2.4505[rip]
	mov	WORD PTR [rax], dx
	jmp	.L162
.L425:
	nop
.L161:
	mov	rax, QWORD PTR XLP$2.4506[rip]
	mov	WORD PTR [rax], 255
.L162:
	movzx	eax, WORD PTR UC1$2.4504[rip]
	movzx	eax, ax
	vcvtsi2sd	xmm0, xmm0, rax
	vmovss	xmm1, DWORD PTR DIVC$[rip]
	vcvtss2sd	xmm1, xmm1, xmm1
	vdivsd	xmm0, xmm0, xmm1
	vroundsd	xmm0, xmm0, xmm0, 12
	vcvttsd2si	eax, xmm0
	mov	WORD PTR UC2$2.4505[rip], ax
	movzx	eax, WORD PTR UC2$2.4505[rip]
	cmp	ax, 255
	ja	.L426
	mov	rax, QWORD PTR YLP$2.4507[rip]
	movzx	edx, WORD PTR UC2$2.4505[rip]
	mov	WORD PTR [rax], dx
	jmp	.L165
.L426:
	nop
.L164:
	mov	rax, QWORD PTR YLP$2.4507[rip]
	mov	WORD PTR [rax], 255
.L165:
	movzx	eax, WORD PTR UC1$2.4504[rip]
	movzx	eax, ax
	vcvtsi2sd	xmm0, xmm0, rax
	vmovss	xmm1, DWORD PTR DIVD$[rip]
	vcvtss2sd	xmm1, xmm1, xmm1
	vdivsd	xmm0, xmm0, xmm1
	vroundsd	xmm0, xmm0, xmm0, 12
	vcvttsd2si	eax, xmm0
	mov	WORD PTR UC2$2.4505[rip], ax
	movzx	eax, WORD PTR UC2$2.4505[rip]
	cmp	ax, 255
	ja	.L427
	mov	rax, QWORD PTR MLP$2.4508[rip]
	movzx	edx, WORD PTR UC2$2.4505[rip]
	mov	WORD PTR [rax], dx
	jmp	.L168
.L427:
	nop
.L167:
	mov	rax, QWORD PTR MLP$2.4508[rip]
	mov	WORD PTR [rax], 255
.L168:
	mov	rax, QWORD PTR XLP$2.4506[rip]
	add	rax, 2
	mov	QWORD PTR XLP$2.4506[rip], rax
	mov	rax, QWORD PTR YLP$2.4507[rip]
	add	rax, 2
	mov	QWORD PTR YLP$2.4507[rip], rax
	mov	rax, QWORD PTR MLP$2.4508[rip]
	add	rax, 2
	mov	QWORD PTR MLP$2.4508[rip], rax
.L169:
	movzx	eax, WORD PTR UC1$2.4504[rip]
	add	eax, 1
	mov	WORD PTR UC1$2.4504[rip], ax
.L170:
	movzx	eax, WORD PTR UC1$2.4504[rip]
	cmp	ax, 16383
	ja	.L428
	jmp	.L159
.L171:
.L172:
.L173:
.L428:
	nop
.L174:
	mov	rax, QWORD PTR PPATR$1.4364[rip]
	mov	QWORD PTR XQ$2.4543[rip], rax
	mov	rax, QWORD PTR PPATR$1.4364[rip]
	mov	QWORD PTR Q$2.4542[rip], rax
	mov	DWORD PTR W$2.4522[rip], 0
.L175:
	mov	eax, DWORD PTR W$2.4522[rip]
	mov	DWORD PTR WC$2.4523[rip], eax
	mov	eax, DWORD PTR WC$2.4523[rip]
	and	eax, 1
	mov	DWORD PTR P9$2.4533[rip], eax
	mov	eax, DWORD PTR WC$2.4523[rip]
	shr	eax
	mov	DWORD PTR WC$2.4523[rip], eax
	mov	eax, DWORD PTR WC$2.4523[rip]
	and	eax, 1
	mov	DWORD PTR P8$2.4532[rip], eax
	mov	eax, DWORD PTR WC$2.4523[rip]
	shr	eax
	mov	DWORD PTR WC$2.4523[rip], eax
	mov	eax, DWORD PTR WC$2.4523[rip]
	and	eax, 1
	mov	DWORD PTR P7$2.4531[rip], eax
	mov	eax, DWORD PTR WC$2.4523[rip]
	shr	eax
	mov	DWORD PTR WC$2.4523[rip], eax
	mov	eax, DWORD PTR WC$2.4523[rip]
	and	eax, 1
	mov	DWORD PTR P6$2.4530[rip], eax
	mov	eax, DWORD PTR WC$2.4523[rip]
	shr	eax
	mov	DWORD PTR WC$2.4523[rip], eax
	mov	eax, DWORD PTR WC$2.4523[rip]
	and	eax, 1
	mov	DWORD PTR P5$2.4529[rip], eax
	mov	eax, DWORD PTR WC$2.4523[rip]
	shr	eax
	mov	DWORD PTR WC$2.4523[rip], eax
	mov	eax, DWORD PTR WC$2.4523[rip]
	and	eax, 1
	mov	DWORD PTR P4$2.4528[rip], eax
	mov	eax, DWORD PTR WC$2.4523[rip]
	shr	eax
	mov	DWORD PTR WC$2.4523[rip], eax
	mov	eax, DWORD PTR WC$2.4523[rip]
	and	eax, 1
	mov	DWORD PTR P3$2.4527[rip], eax
	mov	eax, DWORD PTR WC$2.4523[rip]
	shr	eax
	mov	DWORD PTR WC$2.4523[rip], eax
	mov	eax, DWORD PTR WC$2.4523[rip]
	and	eax, 1
	mov	DWORD PTR P2$2.4526[rip], eax
	mov	eax, DWORD PTR WC$2.4523[rip]
	shr	eax
	mov	DWORD PTR WC$2.4523[rip], eax
	mov	eax, DWORD PTR WC$2.4523[rip]
	and	eax, 1
	mov	DWORD PTR P1$2.4525[rip], eax
	mov	eax, DWORD PTR W$2.4522[rip]
	mov	DWORD PTR R1$2.4534[rip], eax
	mov	eax, DWORD PTR P7$2.4531[rip]
	mov	DWORD PTR R2$2.4535[rip], eax
	mov	eax, DWORD PTR R2$2.4535[rip]
	add	eax, eax
	mov	DWORD PTR R2$2.4535[rip], eax
	mov	edx, DWORD PTR R2$2.4535[rip]
	mov	eax, DWORD PTR P4$2.4528[rip]
	add	eax, edx
	mov	DWORD PTR R2$2.4535[rip], eax
	mov	eax, DWORD PTR R2$2.4535[rip]
	add	eax, eax
	mov	DWORD PTR R2$2.4535[rip], eax
	mov	edx, DWORD PTR R2$2.4535[rip]
	mov	eax, DWORD PTR P1$2.4525[rip]
	add	eax, edx
	mov	DWORD PTR R2$2.4535[rip], eax
	mov	eax, DWORD PTR R2$2.4535[rip]
	add	eax, eax
	mov	DWORD PTR R2$2.4535[rip], eax
	mov	edx, DWORD PTR R2$2.4535[rip]
	mov	eax, DWORD PTR P8$2.4532[rip]
	add	eax, edx
	mov	DWORD PTR R2$2.4535[rip], eax
	mov	eax, DWORD PTR R2$2.4535[rip]
	add	eax, eax
	mov	DWORD PTR R2$2.4535[rip], eax
	mov	edx, DWORD PTR R2$2.4535[rip]
	mov	eax, DWORD PTR P5$2.4529[rip]
	add	eax, edx
	mov	DWORD PTR R2$2.4535[rip], eax
	mov	eax, DWORD PTR R2$2.4535[rip]
	add	eax, eax
	mov	DWORD PTR R2$2.4535[rip], eax
	mov	edx, DWORD PTR R2$2.4535[rip]
	mov	eax, DWORD PTR P2$2.4526[rip]
	add	eax, edx
	mov	DWORD PTR R2$2.4535[rip], eax
	mov	eax, DWORD PTR R2$2.4535[rip]
	add	eax, eax
	mov	DWORD PTR R2$2.4535[rip], eax
	mov	edx, DWORD PTR R2$2.4535[rip]
	mov	eax, DWORD PTR P9$2.4533[rip]
	add	eax, edx
	mov	DWORD PTR R2$2.4535[rip], eax
	mov	eax, DWORD PTR R2$2.4535[rip]
	add	eax, eax
	mov	DWORD PTR R2$2.4535[rip], eax
	mov	edx, DWORD PTR R2$2.4535[rip]
	mov	eax, DWORD PTR P6$2.4530[rip]
	add	eax, edx
	mov	DWORD PTR R2$2.4535[rip], eax
	mov	eax, DWORD PTR R2$2.4535[rip]
	add	eax, eax
	mov	DWORD PTR R2$2.4535[rip], eax
	mov	edx, DWORD PTR R2$2.4535[rip]
	mov	eax, DWORD PTR P3$2.4527[rip]
	add	eax, edx
	mov	DWORD PTR R2$2.4535[rip], eax
	mov	eax, DWORD PTR P9$2.4533[rip]
	mov	DWORD PTR R3$2.4536[rip], eax
	mov	eax, DWORD PTR R3$2.4536[rip]
	add	eax, eax
	mov	DWORD PTR R3$2.4536[rip], eax
	mov	edx, DWORD PTR R3$2.4536[rip]
	mov	eax, DWORD PTR P8$2.4532[rip]
	add	eax, edx
	mov	DWORD PTR R3$2.4536[rip], eax
	mov	eax, DWORD PTR R3$2.4536[rip]
	add	eax, eax
	mov	DWORD PTR R3$2.4536[rip], eax
	mov	edx, DWORD PTR R3$2.4536[rip]
	mov	eax, DWORD PTR P7$2.4531[rip]
	add	eax, edx
	mov	DWORD PTR R3$2.4536[rip], eax
	mov	eax, DWORD PTR R3$2.4536[rip]
	add	eax, eax
	mov	DWORD PTR R3$2.4536[rip], eax
	mov	edx, DWORD PTR R3$2.4536[rip]
	mov	eax, DWORD PTR P6$2.4530[rip]
	add	eax, edx
	mov	DWORD PTR R3$2.4536[rip], eax
	mov	eax, DWORD PTR R3$2.4536[rip]
	add	eax, eax
	mov	DWORD PTR R3$2.4536[rip], eax
	mov	edx, DWORD PTR R3$2.4536[rip]
	mov	eax, DWORD PTR P5$2.4529[rip]
	add	eax, edx
	mov	DWORD PTR R3$2.4536[rip], eax
	mov	eax, DWORD PTR R3$2.4536[rip]
	add	eax, eax
	mov	DWORD PTR R3$2.4536[rip], eax
	mov	edx, DWORD PTR R3$2.4536[rip]
	mov	eax, DWORD PTR P4$2.4528[rip]
	add	eax, edx
	mov	DWORD PTR R3$2.4536[rip], eax
	mov	eax, DWORD PTR R3$2.4536[rip]
	add	eax, eax
	mov	DWORD PTR R3$2.4536[rip], eax
	mov	edx, DWORD PTR R3$2.4536[rip]
	mov	eax, DWORD PTR P3$2.4527[rip]
	add	eax, edx
	mov	DWORD PTR R3$2.4536[rip], eax
	mov	eax, DWORD PTR R3$2.4536[rip]
	add	eax, eax
	mov	DWORD PTR R3$2.4536[rip], eax
	mov	edx, DWORD PTR R3$2.4536[rip]
	mov	eax, DWORD PTR P2$2.4526[rip]
	add	eax, edx
	mov	DWORD PTR R3$2.4536[rip], eax
	mov	eax, DWORD PTR R3$2.4536[rip]
	add	eax, eax
	mov	DWORD PTR R3$2.4536[rip], eax
	mov	edx, DWORD PTR R3$2.4536[rip]
	mov	eax, DWORD PTR P1$2.4525[rip]
	add	eax, edx
	mov	DWORD PTR R3$2.4536[rip], eax
	mov	eax, DWORD PTR P3$2.4527[rip]
	mov	DWORD PTR R4$2.4537[rip], eax
	mov	eax, DWORD PTR R4$2.4537[rip]
	add	eax, eax
	mov	DWORD PTR R4$2.4537[rip], eax
	mov	edx, DWORD PTR R4$2.4537[rip]
	mov	eax, DWORD PTR P6$2.4530[rip]
	add	eax, edx
	mov	DWORD PTR R4$2.4537[rip], eax
	mov	eax, DWORD PTR R4$2.4537[rip]
	add	eax, eax
	mov	DWORD PTR R4$2.4537[rip], eax
	mov	edx, DWORD PTR R4$2.4537[rip]
	mov	eax, DWORD PTR P9$2.4533[rip]
	add	eax, edx
	mov	DWORD PTR R4$2.4537[rip], eax
	mov	eax, DWORD PTR R4$2.4537[rip]
	add	eax, eax
	mov	DWORD PTR R4$2.4537[rip], eax
	mov	edx, DWORD PTR R4$2.4537[rip]
	mov	eax, DWORD PTR P2$2.4526[rip]
	add	eax, edx
	mov	DWORD PTR R4$2.4537[rip], eax
	mov	eax, DWORD PTR R4$2.4537[rip]
	add	eax, eax
	mov	DWORD PTR R4$2.4537[rip], eax
	mov	edx, DWORD PTR R4$2.4537[rip]
	mov	eax, DWORD PTR P5$2.4529[rip]
	add	eax, edx
	mov	DWORD PTR R4$2.4537[rip], eax
	mov	eax, DWORD PTR R4$2.4537[rip]
	add	eax, eax
	mov	DWORD PTR R4$2.4537[rip], eax
	mov	edx, DWORD PTR R4$2.4537[rip]
	mov	eax, DWORD PTR P8$2.4532[rip]
	add	eax, edx
	mov	DWORD PTR R4$2.4537[rip], eax
	mov	eax, DWORD PTR R4$2.4537[rip]
	add	eax, eax
	mov	DWORD PTR R4$2.4537[rip], eax
	mov	edx, DWORD PTR R4$2.4537[rip]
	mov	eax, DWORD PTR P1$2.4525[rip]
	add	eax, edx
	mov	DWORD PTR R4$2.4537[rip], eax
	mov	eax, DWORD PTR R4$2.4537[rip]
	add	eax, eax
	mov	DWORD PTR R4$2.4537[rip], eax
	mov	edx, DWORD PTR R4$2.4537[rip]
	mov	eax, DWORD PTR P4$2.4528[rip]
	add	eax, edx
	mov	DWORD PTR R4$2.4537[rip], eax
	mov	eax, DWORD PTR R4$2.4537[rip]
	add	eax, eax
	mov	DWORD PTR R4$2.4537[rip], eax
	mov	edx, DWORD PTR R4$2.4537[rip]
	mov	eax, DWORD PTR P7$2.4531[rip]
	add	eax, edx
	mov	DWORD PTR R4$2.4537[rip], eax
	mov	eax, DWORD PTR P3$2.4527[rip]
	mov	DWORD PTR R5$2.4538[rip], eax
	mov	eax, DWORD PTR R5$2.4538[rip]
	add	eax, eax
	mov	DWORD PTR R5$2.4538[rip], eax
	mov	edx, DWORD PTR R5$2.4538[rip]
	mov	eax, DWORD PTR P2$2.4526[rip]
	add	eax, edx
	mov	DWORD PTR R5$2.4538[rip], eax
	mov	eax, DWORD PTR R5$2.4538[rip]
	add	eax, eax
	mov	DWORD PTR R5$2.4538[rip], eax
	mov	edx, DWORD PTR R5$2.4538[rip]
	mov	eax, DWORD PTR P1$2.4525[rip]
	add	eax, edx
	mov	DWORD PTR R5$2.4538[rip], eax
	mov	eax, DWORD PTR R5$2.4538[rip]
	add	eax, eax
	mov	DWORD PTR R5$2.4538[rip], eax
	mov	edx, DWORD PTR R5$2.4538[rip]
	mov	eax, DWORD PTR P6$2.4530[rip]
	add	eax, edx
	mov	DWORD PTR R5$2.4538[rip], eax
	mov	eax, DWORD PTR R5$2.4538[rip]
	add	eax, eax
	mov	DWORD PTR R5$2.4538[rip], eax
	mov	edx, DWORD PTR R5$2.4538[rip]
	mov	eax, DWORD PTR P5$2.4529[rip]
	add	eax, edx
	mov	DWORD PTR R5$2.4538[rip], eax
	mov	eax, DWORD PTR R5$2.4538[rip]
	add	eax, eax
	mov	DWORD PTR R5$2.4538[rip], eax
	mov	edx, DWORD PTR R5$2.4538[rip]
	mov	eax, DWORD PTR P4$2.4528[rip]
	add	eax, edx
	mov	DWORD PTR R5$2.4538[rip], eax
	mov	eax, DWORD PTR R5$2.4538[rip]
	add	eax, eax
	mov	DWORD PTR R5$2.4538[rip], eax
	mov	edx, DWORD PTR R5$2.4538[rip]
	mov	eax, DWORD PTR P9$2.4533[rip]
	add	eax, edx
	mov	DWORD PTR R5$2.4538[rip], eax
	mov	eax, DWORD PTR R5$2.4538[rip]
	add	eax, eax
	mov	DWORD PTR R5$2.4538[rip], eax
	mov	edx, DWORD PTR R5$2.4538[rip]
	mov	eax, DWORD PTR P8$2.4532[rip]
	add	eax, edx
	mov	DWORD PTR R5$2.4538[rip], eax
	mov	eax, DWORD PTR R5$2.4538[rip]
	add	eax, eax
	mov	DWORD PTR R5$2.4538[rip], eax
	mov	edx, DWORD PTR R5$2.4538[rip]
	mov	eax, DWORD PTR P7$2.4531[rip]
	add	eax, edx
	mov	DWORD PTR R5$2.4538[rip], eax
	mov	eax, DWORD PTR P9$2.4533[rip]
	mov	DWORD PTR R6$2.4539[rip], eax
	mov	eax, DWORD PTR R6$2.4539[rip]
	add	eax, eax
	mov	DWORD PTR R6$2.4539[rip], eax
	mov	edx, DWORD PTR R6$2.4539[rip]
	mov	eax, DWORD PTR P6$2.4530[rip]
	add	eax, edx
	mov	DWORD PTR R6$2.4539[rip], eax
	mov	eax, DWORD PTR R6$2.4539[rip]
	add	eax, eax
	mov	DWORD PTR R6$2.4539[rip], eax
	mov	edx, DWORD PTR R6$2.4539[rip]
	mov	eax, DWORD PTR P3$2.4527[rip]
	add	eax, edx
	mov	DWORD PTR R6$2.4539[rip], eax
	mov	eax, DWORD PTR R6$2.4539[rip]
	add	eax, eax
	mov	DWORD PTR R6$2.4539[rip], eax
	mov	edx, DWORD PTR R6$2.4539[rip]
	mov	eax, DWORD PTR P8$2.4532[rip]
	add	eax, edx
	mov	DWORD PTR R6$2.4539[rip], eax
	mov	eax, DWORD PTR R6$2.4539[rip]
	add	eax, eax
	mov	DWORD PTR R6$2.4539[rip], eax
	mov	edx, DWORD PTR R6$2.4539[rip]
	mov	eax, DWORD PTR P5$2.4529[rip]
	add	eax, edx
	mov	DWORD PTR R6$2.4539[rip], eax
	mov	eax, DWORD PTR R6$2.4539[rip]
	add	eax, eax
	mov	DWORD PTR R6$2.4539[rip], eax
	mov	edx, DWORD PTR R6$2.4539[rip]
	mov	eax, DWORD PTR P2$2.4526[rip]
	add	eax, edx
	mov	DWORD PTR R6$2.4539[rip], eax
	mov	eax, DWORD PTR R6$2.4539[rip]
	add	eax, eax
	mov	DWORD PTR R6$2.4539[rip], eax
	mov	edx, DWORD PTR R6$2.4539[rip]
	mov	eax, DWORD PTR P7$2.4531[rip]
	add	eax, edx
	mov	DWORD PTR R6$2.4539[rip], eax
	mov	eax, DWORD PTR R6$2.4539[rip]
	add	eax, eax
	mov	DWORD PTR R6$2.4539[rip], eax
	mov	edx, DWORD PTR R6$2.4539[rip]
	mov	eax, DWORD PTR P4$2.4528[rip]
	add	eax, edx
	mov	DWORD PTR R6$2.4539[rip], eax
	mov	eax, DWORD PTR R6$2.4539[rip]
	add	eax, eax
	mov	DWORD PTR R6$2.4539[rip], eax
	mov	edx, DWORD PTR R6$2.4539[rip]
	mov	eax, DWORD PTR P1$2.4525[rip]
	add	eax, edx
	mov	DWORD PTR R6$2.4539[rip], eax
	mov	eax, DWORD PTR P7$2.4531[rip]
	mov	DWORD PTR R7$2.4540[rip], eax
	mov	eax, DWORD PTR R7$2.4540[rip]
	add	eax, eax
	mov	DWORD PTR R7$2.4540[rip], eax
	mov	edx, DWORD PTR R7$2.4540[rip]
	mov	eax, DWORD PTR P8$2.4532[rip]
	add	eax, edx
	mov	DWORD PTR R7$2.4540[rip], eax
	mov	eax, DWORD PTR R7$2.4540[rip]
	add	eax, eax
	mov	DWORD PTR R7$2.4540[rip], eax
	mov	edx, DWORD PTR R7$2.4540[rip]
	mov	eax, DWORD PTR P9$2.4533[rip]
	add	eax, edx
	mov	DWORD PTR R7$2.4540[rip], eax
	mov	eax, DWORD PTR R7$2.4540[rip]
	add	eax, eax
	mov	DWORD PTR R7$2.4540[rip], eax
	mov	edx, DWORD PTR R7$2.4540[rip]
	mov	eax, DWORD PTR P4$2.4528[rip]
	add	eax, edx
	mov	DWORD PTR R7$2.4540[rip], eax
	mov	eax, DWORD PTR R7$2.4540[rip]
	add	eax, eax
	mov	DWORD PTR R7$2.4540[rip], eax
	mov	edx, DWORD PTR R7$2.4540[rip]
	mov	eax, DWORD PTR P5$2.4529[rip]
	add	eax, edx
	mov	DWORD PTR R7$2.4540[rip], eax
	mov	eax, DWORD PTR R7$2.4540[rip]
	add	eax, eax
	mov	DWORD PTR R7$2.4540[rip], eax
	mov	edx, DWORD PTR R7$2.4540[rip]
	mov	eax, DWORD PTR P6$2.4530[rip]
	add	eax, edx
	mov	DWORD PTR R7$2.4540[rip], eax
	mov	eax, DWORD PTR R7$2.4540[rip]
	add	eax, eax
	mov	DWORD PTR R7$2.4540[rip], eax
	mov	edx, DWORD PTR R7$2.4540[rip]
	mov	eax, DWORD PTR P1$2.4525[rip]
	add	eax, edx
	mov	DWORD PTR R7$2.4540[rip], eax
	mov	eax, DWORD PTR R7$2.4540[rip]
	add	eax, eax
	mov	DWORD PTR R7$2.4540[rip], eax
	mov	edx, DWORD PTR R7$2.4540[rip]
	mov	eax, DWORD PTR P2$2.4526[rip]
	add	eax, edx
	mov	DWORD PTR R7$2.4540[rip], eax
	mov	eax, DWORD PTR R7$2.4540[rip]
	add	eax, eax
	mov	DWORD PTR R7$2.4540[rip], eax
	mov	edx, DWORD PTR R7$2.4540[rip]
	mov	eax, DWORD PTR P3$2.4527[rip]
	add	eax, edx
	mov	DWORD PTR R7$2.4540[rip], eax
	mov	eax, DWORD PTR P1$2.4525[rip]
	mov	DWORD PTR R8$2.4541[rip], eax
	mov	eax, DWORD PTR R8$2.4541[rip]
	add	eax, eax
	mov	DWORD PTR R8$2.4541[rip], eax
	mov	edx, DWORD PTR R8$2.4541[rip]
	mov	eax, DWORD PTR P4$2.4528[rip]
	add	eax, edx
	mov	DWORD PTR R8$2.4541[rip], eax
	mov	eax, DWORD PTR R8$2.4541[rip]
	add	eax, eax
	mov	DWORD PTR R8$2.4541[rip], eax
	mov	edx, DWORD PTR R8$2.4541[rip]
	mov	eax, DWORD PTR P7$2.4531[rip]
	add	eax, edx
	mov	DWORD PTR R8$2.4541[rip], eax
	mov	eax, DWORD PTR R8$2.4541[rip]
	add	eax, eax
	mov	DWORD PTR R8$2.4541[rip], eax
	mov	edx, DWORD PTR R8$2.4541[rip]
	mov	eax, DWORD PTR P2$2.4526[rip]
	add	eax, edx
	mov	DWORD PTR R8$2.4541[rip], eax
	mov	eax, DWORD PTR R8$2.4541[rip]
	add	eax, eax
	mov	DWORD PTR R8$2.4541[rip], eax
	mov	edx, DWORD PTR R8$2.4541[rip]
	mov	eax, DWORD PTR P5$2.4529[rip]
	add	eax, edx
	mov	DWORD PTR R8$2.4541[rip], eax
	mov	eax, DWORD PTR R8$2.4541[rip]
	add	eax, eax
	mov	DWORD PTR R8$2.4541[rip], eax
	mov	edx, DWORD PTR R8$2.4541[rip]
	mov	eax, DWORD PTR P8$2.4532[rip]
	add	eax, edx
	mov	DWORD PTR R8$2.4541[rip], eax
	mov	eax, DWORD PTR R8$2.4541[rip]
	add	eax, eax
	mov	DWORD PTR R8$2.4541[rip], eax
	mov	edx, DWORD PTR R8$2.4541[rip]
	mov	eax, DWORD PTR P3$2.4527[rip]
	add	eax, edx
	mov	DWORD PTR R8$2.4541[rip], eax
	mov	eax, DWORD PTR R8$2.4541[rip]
	add	eax, eax
	mov	DWORD PTR R8$2.4541[rip], eax
	mov	edx, DWORD PTR R8$2.4541[rip]
	mov	eax, DWORD PTR P6$2.4530[rip]
	add	eax, edx
	mov	DWORD PTR R8$2.4541[rip], eax
	mov	eax, DWORD PTR R8$2.4541[rip]
	add	eax, eax
	mov	DWORD PTR R8$2.4541[rip], eax
	mov	edx, DWORD PTR R8$2.4541[rip]
	mov	eax, DWORD PTR P9$2.4533[rip]
	add	eax, edx
	mov	DWORD PTR R8$2.4541[rip], eax
	mov	eax, DWORD PTR R1$2.4534[rip]
	mov	edx, eax
	mov	eax, DWORD PTR R2$2.4535[rip]
	mov	eax, eax
	sal	rax, 16
	add	rdx, rax
	mov	eax, DWORD PTR R3$2.4536[rip]
	mov	eax, eax
	sal	rax, 32
	add	rdx, rax
	mov	eax, DWORD PTR R4$2.4537[rip]
	mov	eax, eax
	sal	rax, 48
	add	rdx, rax
	mov	rax, QWORD PTR XQ$2.4543[rip]
	mov	QWORD PTR [rax], rdx
	mov	rax, QWORD PTR XQ$2.4543[rip]
	add	rax, 8
	mov	QWORD PTR XQ$2.4543[rip], rax
	mov	eax, DWORD PTR R5$2.4538[rip]
	mov	edx, eax
	mov	eax, DWORD PTR R6$2.4539[rip]
	mov	eax, eax
	sal	rax, 16
	add	rdx, rax
	mov	eax, DWORD PTR R7$2.4540[rip]
	mov	eax, eax
	sal	rax, 32
	add	rdx, rax
	mov	eax, DWORD PTR R8$2.4541[rip]
	mov	eax, eax
	sal	rax, 48
	add	rdx, rax
	mov	rax, QWORD PTR XQ$2.4543[rip]
	mov	QWORD PTR [rax], rdx
	mov	rax, QWORD PTR XQ$2.4543[rip]
	add	rax, 8
	mov	QWORD PTR XQ$2.4543[rip], rax
.L176:
	mov	eax, DWORD PTR W$2.4522[rip]
	add	eax, 1
	mov	DWORD PTR W$2.4522[rip], eax
.L177:
	mov	eax, DWORD PTR W$2.4522[rip]
	cmp	eax, 511
	ja	.L429
	jmp	.L175
.L178:
.L179:
.L180:
.L429:
	nop
.L181:
	mov	rax, QWORD PTR PMLIM$1.4356[rip]
	mov	QWORD PTR H$2.4556[rip], rax
	mov	rax, QWORD PTR PPLIM$1.4355[rip]
	mov	QWORD PTR L$2.4557[rip], rax
	mov	DWORD PTR W$2.4552[rip], 0
.L182:
	mov	rdx, QWORD PTR PCLIM$1.4354[rip]
	mov	rax, QWORD PTR PPAT$1.4363[rip]
	mov	ecx, DWORD PTR W$2.4552[rip]
	mov	ecx, ecx
	sal	rcx, 3
	add	rax, rcx
	mov	QWORD PTR [rax], rdx
.L183:
	mov	eax, DWORD PTR W$2.4552[rip]
	add	eax, 1
	mov	DWORD PTR W$2.4552[rip], eax
.L184:
	mov	eax, DWORD PTR W$2.4552[rip]
	cmp	eax, 511
	ja	.L430
	jmp	.L182
.L430:
	nop
.L185:
	mov	eax, DWORD PTR NOPT$1.4350[rip]
	test	eax, eax
	jne	.L431
	nop
.L187:
	mov	rax, QWORD PTR H$2.4556[rip]
	mov	QWORD PTR X$2.4555[rip], rax
	mov	rax, QWORD PTR PPATR$1.4364[rip]
	add	rax, 2720
	mov	QWORD PTR BB$2.4564[rip], rax
	mov	DWORD PTR C$2.4553[rip], 0
.L189:
	mov	rdx, QWORD PTR X$2.4555[rip]
	mov	rax, QWORD PTR PPAT$1.4363[rip]
	mov	rcx, QWORD PTR BB$2.4564[rip]
	mov	r8d, DWORD PTR C$2.4553[rip]
	mov	r8d, r8d
	add	r8, r8
	add	rcx, r8
	movzx	ecx, WORD PTR [rcx]
	movzx	ecx, cx
	sal	rcx, 3
	add	rax, rcx
	mov	QWORD PTR [rax], rdx
.L190:
	mov	eax, DWORD PTR C$2.4553[rip]
	add	eax, 1
	mov	DWORD PTR C$2.4553[rip], eax
.L191:
	mov	eax, DWORD PTR C$2.4553[rip]
	cmp	eax, 7
	ja	.L432
	jmp	.L189
.L432:
	nop
.L192:
	mov	rax, QWORD PTR H$2.4556[rip]
	mov	QWORD PTR X$2.4555[rip], rax
	mov	rax, QWORD PTR PPATR$1.4364[rip]
	add	rax, 6816
	mov	QWORD PTR BB$2.4564[rip], rax
	mov	DWORD PTR C$2.4553[rip], 0
.L193:
	mov	rdx, QWORD PTR X$2.4555[rip]
	mov	rax, QWORD PTR PPAT$1.4363[rip]
	mov	rcx, QWORD PTR BB$2.4564[rip]
	mov	r8d, DWORD PTR C$2.4553[rip]
	mov	r8d, r8d
	add	r8, r8
	add	rcx, r8
	movzx	ecx, WORD PTR [rcx]
	movzx	ecx, cx
	sal	rcx, 3
	add	rax, rcx
	mov	QWORD PTR [rax], rdx
.L194:
	mov	eax, DWORD PTR C$2.4553[rip]
	add	eax, 1
	mov	DWORD PTR C$2.4553[rip], eax
.L195:
	mov	eax, DWORD PTR C$2.4553[rip]
	cmp	eax, 7
	ja	.L433
	jmp	.L193
.L433:
	nop
.L196:
	mov	rax, QWORD PTR H$2.4556[rip]
	mov	QWORD PTR X$2.4555[rip], rax
	mov	rax, QWORD PTR PPATR$1.4364[rip]
	add	rax, 7840
	mov	QWORD PTR BB$2.4564[rip], rax
	mov	DWORD PTR C$2.4553[rip], 0
.L197:
	mov	rdx, QWORD PTR X$2.4555[rip]
	mov	rax, QWORD PTR PPAT$1.4363[rip]
	mov	rcx, QWORD PTR BB$2.4564[rip]
	mov	r8d, DWORD PTR C$2.4553[rip]
	mov	r8d, r8d
	add	r8, r8
	add	rcx, r8
	movzx	ecx, WORD PTR [rcx]
	movzx	ecx, cx
	sal	rcx, 3
	add	rax, rcx
	mov	QWORD PTR [rax], rdx
.L198:
	mov	eax, DWORD PTR C$2.4553[rip]
	add	eax, 1
	mov	DWORD PTR C$2.4553[rip], eax
.L199:
	mov	eax, DWORD PTR C$2.4553[rip]
	cmp	eax, 7
	ja	.L434
	jmp	.L197
.L434:
	nop
.L200:
	mov	rax, QWORD PTR H$2.4556[rip]
	mov	QWORD PTR X$2.4555[rip], rax
	mov	rax, QWORD PTR PPATR$1.4364[rip]
	add	rax, 2704
	mov	QWORD PTR BB$2.4564[rip], rax
	mov	DWORD PTR C$2.4553[rip], 0
.L201:
	mov	rdx, QWORD PTR X$2.4555[rip]
	mov	rax, QWORD PTR PPAT$1.4363[rip]
	mov	rcx, QWORD PTR BB$2.4564[rip]
	mov	r8d, DWORD PTR C$2.4553[rip]
	mov	r8d, r8d
	add	r8, r8
	add	rcx, r8
	movzx	ecx, WORD PTR [rcx]
	movzx	ecx, cx
	sal	rcx, 3
	add	rax, rcx
	mov	QWORD PTR [rax], rdx
.L202:
	mov	eax, DWORD PTR C$2.4553[rip]
	add	eax, 1
	mov	DWORD PTR C$2.4553[rip], eax
.L203:
	mov	eax, DWORD PTR C$2.4553[rip]
	cmp	eax, 7
	ja	.L435
	jmp	.L201
.L435:
	nop
.L204:
	mov	rax, QWORD PTR H$2.4556[rip]
	mov	QWORD PTR X$2.4555[rip], rax
	mov	rax, QWORD PTR PPATR$1.4364[rip]
	add	rax, 2240
	mov	QWORD PTR BB$2.4564[rip], rax
	mov	DWORD PTR C$2.4553[rip], 0
.L205:
	mov	rdx, QWORD PTR X$2.4555[rip]
	mov	rax, QWORD PTR PPAT$1.4363[rip]
	mov	rcx, QWORD PTR BB$2.4564[rip]
	mov	r8d, DWORD PTR C$2.4553[rip]
	mov	r8d, r8d
	add	r8, r8
	add	rcx, r8
	movzx	ecx, WORD PTR [rcx]
	movzx	ecx, cx
	sal	rcx, 3
	add	rax, rcx
	mov	QWORD PTR [rax], rdx
.L206:
	mov	eax, DWORD PTR C$2.4553[rip]
	add	eax, 1
	mov	DWORD PTR C$2.4553[rip], eax
.L207:
	mov	eax, DWORD PTR C$2.4553[rip]
	cmp	eax, 7
	ja	.L436
	jmp	.L205
.L436:
	nop
.L208:
	mov	rax, QWORD PTR L$2.4557[rip]
	mov	QWORD PTR X$2.4555[rip], rax
	mov	rax, QWORD PTR PPATR$1.4364[rip]
	add	rax, 640
	mov	QWORD PTR BB$2.4564[rip], rax
	mov	DWORD PTR C$2.4553[rip], 0
.L209:
	mov	rdx, QWORD PTR X$2.4555[rip]
	mov	rax, QWORD PTR PPAT$1.4363[rip]
	mov	rcx, QWORD PTR BB$2.4564[rip]
	mov	r8d, DWORD PTR C$2.4553[rip]
	mov	r8d, r8d
	add	r8, r8
	add	rcx, r8
	movzx	ecx, WORD PTR [rcx]
	movzx	ecx, cx
	sal	rcx, 3
	add	rax, rcx
	mov	QWORD PTR [rax], rdx
.L210:
	mov	eax, DWORD PTR C$2.4553[rip]
	add	eax, 1
	mov	DWORD PTR C$2.4553[rip], eax
.L211:
	mov	eax, DWORD PTR C$2.4553[rip]
	cmp	eax, 7
	ja	.L437
	jmp	.L209
.L437:
	nop
.L212:
	mov	rax, QWORD PTR L$2.4557[rip]
	mov	QWORD PTR X$2.4555[rip], rax
	mov	rax, QWORD PTR PPATR$1.4364[rip]
	add	rax, 5200
	mov	QWORD PTR BB$2.4564[rip], rax
	mov	DWORD PTR C$2.4553[rip], 0
.L213:
	mov	rdx, QWORD PTR X$2.4555[rip]
	mov	rax, QWORD PTR PPAT$1.4363[rip]
	mov	rcx, QWORD PTR BB$2.4564[rip]
	mov	r8d, DWORD PTR C$2.4553[rip]
	mov	r8d, r8d
	add	r8, r8
	add	rcx, r8
	movzx	ecx, WORD PTR [rcx]
	movzx	ecx, cx
	sal	rcx, 3
	add	rax, rcx
	mov	QWORD PTR [rax], rdx
.L214:
	mov	eax, DWORD PTR C$2.4553[rip]
	add	eax, 1
	mov	DWORD PTR C$2.4553[rip], eax
.L215:
	mov	eax, DWORD PTR C$2.4553[rip]
	cmp	eax, 7
	ja	.L438
	jmp	.L213
.L438:
	nop
.L216:
	mov	rax, QWORD PTR L$2.4557[rip]
	mov	QWORD PTR X$2.4555[rip], rax
	mov	rax, QWORD PTR PPATR$1.4364[rip]
	add	rax, 5184
	mov	QWORD PTR BB$2.4564[rip], rax
	mov	DWORD PTR C$2.4553[rip], 0
.L217:
	mov	rdx, QWORD PTR X$2.4555[rip]
	mov	rax, QWORD PTR PPAT$1.4363[rip]
	mov	rcx, QWORD PTR BB$2.4564[rip]
	mov	r8d, DWORD PTR C$2.4553[rip]
	mov	r8d, r8d
	add	r8, r8
	add	rcx, r8
	movzx	ecx, WORD PTR [rcx]
	movzx	ecx, cx
	sal	rcx, 3
	add	rax, rcx
	mov	QWORD PTR [rax], rdx
.L218:
	mov	eax, DWORD PTR C$2.4553[rip]
	add	eax, 1
	mov	DWORD PTR C$2.4553[rip], eax
.L219:
	mov	eax, DWORD PTR C$2.4553[rip]
	cmp	eax, 7
	ja	.L439
	jmp	.L217
.L439:
	nop
.L220:
	mov	rax, QWORD PTR L$2.4557[rip]
	mov	QWORD PTR X$2.4555[rip], rax
	mov	rax, QWORD PTR PPATR$1.4364[rip]
	add	rax, 7360
	mov	QWORD PTR BB$2.4564[rip], rax
	mov	DWORD PTR C$2.4553[rip], 0
.L221:
	mov	rdx, QWORD PTR X$2.4555[rip]
	mov	rax, QWORD PTR PPAT$1.4363[rip]
	mov	rcx, QWORD PTR BB$2.4564[rip]
	mov	r8d, DWORD PTR C$2.4553[rip]
	mov	r8d, r8d
	add	r8, r8
	add	rcx, r8
	movzx	ecx, WORD PTR [rcx]
	movzx	ecx, cx
	sal	rcx, 3
	add	rax, rcx
	mov	QWORD PTR [rax], rdx
.L222:
	mov	eax, DWORD PTR C$2.4553[rip]
	add	eax, 1
	mov	DWORD PTR C$2.4553[rip], eax
.L223:
	mov	eax, DWORD PTR C$2.4553[rip]
	cmp	eax, 7
	ja	.L440
	jmp	.L221
.L440:
	nop
.L224:
	mov	rax, QWORD PTR L$2.4557[rip]
	mov	QWORD PTR X$2.4555[rip], rax
	mov	rax, QWORD PTR PPATR$1.4364[rip]
	add	rax, 5152
	mov	QWORD PTR BB$2.4564[rip], rax
	mov	DWORD PTR C$2.4553[rip], 0
.L225:
	mov	rdx, QWORD PTR X$2.4555[rip]
	mov	rax, QWORD PTR PPAT$1.4363[rip]
	mov	rcx, QWORD PTR BB$2.4564[rip]
	mov	r8d, DWORD PTR C$2.4553[rip]
	mov	r8d, r8d
	add	r8, r8
	add	rcx, r8
	movzx	ecx, WORD PTR [rcx]
	movzx	ecx, cx
	sal	rcx, 3
	add	rax, rcx
	mov	QWORD PTR [rax], rdx
.L226:
	mov	eax, DWORD PTR C$2.4553[rip]
	add	eax, 1
	mov	DWORD PTR C$2.4553[rip], eax
.L227:
	mov	eax, DWORD PTR C$2.4553[rip]
	cmp	eax, 7
	ja	.L441
	jmp	.L225
.L441:
	nop
.L228:
	mov	rax, QWORD PTR L$2.4557[rip]
	mov	QWORD PTR X$2.4555[rip], rax
	mov	rax, QWORD PTR PPATR$1.4364[rip]
	add	rax, 5232
	mov	QWORD PTR BB$2.4564[rip], rax
	mov	DWORD PTR C$2.4553[rip], 0
.L229:
	mov	rdx, QWORD PTR X$2.4555[rip]
	mov	rax, QWORD PTR PPAT$1.4363[rip]
	mov	rcx, QWORD PTR BB$2.4564[rip]
	mov	r8d, DWORD PTR C$2.4553[rip]
	mov	r8d, r8d
	add	r8, r8
	add	rcx, r8
	movzx	ecx, WORD PTR [rcx]
	movzx	ecx, cx
	sal	rcx, 3
	add	rax, rcx
	mov	QWORD PTR [rax], rdx
.L230:
	mov	eax, DWORD PTR C$2.4553[rip]
	add	eax, 1
	mov	DWORD PTR C$2.4553[rip], eax
.L231:
	mov	eax, DWORD PTR C$2.4553[rip]
	cmp	eax, 7
	ja	.L442
	jmp	.L229
.L442:
	nop
.L232:
	mov	rax, QWORD PTR L$2.4557[rip]
	mov	QWORD PTR X$2.4555[rip], rax
	mov	rax, QWORD PTR PPATR$1.4364[rip]
	add	rax, 624
	mov	QWORD PTR BB$2.4564[rip], rax
	mov	DWORD PTR C$2.4553[rip], 0
.L233:
	mov	rdx, QWORD PTR X$2.4555[rip]
	mov	rax, QWORD PTR PPAT$1.4363[rip]
	mov	rcx, QWORD PTR BB$2.4564[rip]
	mov	r8d, DWORD PTR C$2.4553[rip]
	mov	r8d, r8d
	add	r8, r8
	add	rcx, r8
	movzx	ecx, WORD PTR [rcx]
	movzx	ecx, cx
	sal	rcx, 3
	add	rax, rcx
	mov	QWORD PTR [rax], rdx
.L234:
	mov	eax, DWORD PTR C$2.4553[rip]
	add	eax, 1
	mov	DWORD PTR C$2.4553[rip], eax
.L235:
	mov	eax, DWORD PTR C$2.4553[rip]
	cmp	eax, 7
	ja	.L443
	jmp	.L233
.L443:
	nop
.L236:
	mov	rax, QWORD PTR L$2.4557[rip]
	mov	QWORD PTR X$2.4555[rip], rax
	mov	rax, QWORD PTR PPATR$1.4364[rip]
	add	rax, 2080
	mov	QWORD PTR BB$2.4564[rip], rax
	mov	DWORD PTR C$2.4553[rip], 0
.L237:
	mov	rdx, QWORD PTR X$2.4555[rip]
	mov	rax, QWORD PTR PPAT$1.4363[rip]
	mov	rcx, QWORD PTR BB$2.4564[rip]
	mov	r8d, DWORD PTR C$2.4553[rip]
	mov	r8d, r8d
	add	r8, r8
	add	rcx, r8
	movzx	ecx, WORD PTR [rcx]
	movzx	ecx, cx
	sal	rcx, 3
	add	rax, rcx
	mov	QWORD PTR [rax], rdx
.L238:
	mov	eax, DWORD PTR C$2.4553[rip]
	add	eax, 1
	mov	DWORD PTR C$2.4553[rip], eax
.L239:
	mov	eax, DWORD PTR C$2.4553[rip]
	cmp	eax, 7
	ja	.L444
	jmp	.L237
.L444:
	nop
.L240:
	mov	rax, QWORD PTR L$2.4557[rip]
	mov	QWORD PTR X$2.4555[rip], rax
	mov	rax, QWORD PTR PPATR$1.4364[rip]
	add	rax, 2064
	mov	QWORD PTR BB$2.4564[rip], rax
	mov	DWORD PTR C$2.4553[rip], 0
.L241:
	mov	rdx, QWORD PTR X$2.4555[rip]
	mov	rax, QWORD PTR PPAT$1.4363[rip]
	mov	rcx, QWORD PTR BB$2.4564[rip]
	mov	r8d, DWORD PTR C$2.4553[rip]
	mov	r8d, r8d
	add	r8, r8
	add	rcx, r8
	movzx	ecx, WORD PTR [rcx]
	movzx	ecx, cx
	sal	rcx, 3
	add	rax, rcx
	mov	QWORD PTR [rax], rdx
.L242:
	mov	eax, DWORD PTR C$2.4553[rip]
	add	eax, 1
	mov	DWORD PTR C$2.4553[rip], eax
.L243:
	mov	eax, DWORD PTR C$2.4553[rip]
	cmp	eax, 7
	ja	.L445
	jmp	.L241
.L445:
	nop
.L244:
	mov	rax, QWORD PTR L$2.4557[rip]
	mov	QWORD PTR X$2.4555[rip], rax
	mov	rax, QWORD PTR PPATR$1.4364[rip]
	add	rax, 5280
	mov	QWORD PTR BB$2.4564[rip], rax
	mov	DWORD PTR C$2.4553[rip], 0
.L245:
	mov	rdx, QWORD PTR X$2.4555[rip]
	mov	rax, QWORD PTR PPAT$1.4363[rip]
	mov	rcx, QWORD PTR BB$2.4564[rip]
	mov	r8d, DWORD PTR C$2.4553[rip]
	mov	r8d, r8d
	add	r8, r8
	add	rcx, r8
	movzx	ecx, WORD PTR [rcx]
	movzx	ecx, cx
	sal	rcx, 3
	add	rax, rcx
	mov	QWORD PTR [rax], rdx
.L246:
	mov	eax, DWORD PTR C$2.4553[rip]
	add	eax, 1
	mov	DWORD PTR C$2.4553[rip], eax
.L247:
	mov	eax, DWORD PTR C$2.4553[rip]
	cmp	eax, 7
	ja	.L446
	jmp	.L245
.L446:
	nop
.L248:
	mov	rax, QWORD PTR L$2.4557[rip]
	mov	QWORD PTR X$2.4555[rip], rax
	mov	rax, QWORD PTR PPATR$1.4364[rip]
	add	rax, 7808
	mov	QWORD PTR BB$2.4564[rip], rax
	mov	DWORD PTR C$2.4553[rip], 0
.L249:
	mov	rdx, QWORD PTR X$2.4555[rip]
	mov	rax, QWORD PTR PPAT$1.4363[rip]
	mov	rcx, QWORD PTR BB$2.4564[rip]
	mov	r8d, DWORD PTR C$2.4553[rip]
	mov	r8d, r8d
	add	r8, r8
	add	rcx, r8
	movzx	ecx, WORD PTR [rcx]
	movzx	ecx, cx
	sal	rcx, 3
	add	rax, rcx
	mov	QWORD PTR [rax], rdx
.L250:
	mov	eax, DWORD PTR C$2.4553[rip]
	add	eax, 1
	mov	DWORD PTR C$2.4553[rip], eax
.L251:
	mov	eax, DWORD PTR C$2.4553[rip]
	cmp	eax, 7
	ja	.L447
	jmp	.L249
.L447:
	nop
.L252:
	mov	rax, QWORD PTR L$2.4557[rip]
	mov	QWORD PTR X$2.4555[rip], rax
	mov	rax, QWORD PTR PPATR$1.4364[rip]
	add	rax, 7920
	mov	QWORD PTR BB$2.4564[rip], rax
	mov	DWORD PTR C$2.4553[rip], 0
.L253:
	mov	rdx, QWORD PTR X$2.4555[rip]
	mov	rax, QWORD PTR PPAT$1.4363[rip]
	mov	rcx, QWORD PTR BB$2.4564[rip]
	mov	r8d, DWORD PTR C$2.4553[rip]
	mov	r8d, r8d
	add	r8, r8
	add	rcx, r8
	movzx	ecx, WORD PTR [rcx]
	movzx	ecx, cx
	sal	rcx, 3
	add	rax, rcx
	mov	QWORD PTR [rax], rdx
.L254:
	mov	eax, DWORD PTR C$2.4553[rip]
	add	eax, 1
	mov	DWORD PTR C$2.4553[rip], eax
.L255:
	mov	eax, DWORD PTR C$2.4553[rip]
	cmp	eax, 7
	ja	.L448
	jmp	.L253
.L448:
	nop
.L256:
	mov	rax, QWORD PTR L$2.4557[rip]
	mov	QWORD PTR X$2.4555[rip], rax
	mov	rax, QWORD PTR PPATR$1.4364[rip]
	add	rax, 3824
	mov	QWORD PTR BB$2.4564[rip], rax
	mov	DWORD PTR C$2.4553[rip], 0
.L257:
	mov	rdx, QWORD PTR X$2.4555[rip]
	mov	rax, QWORD PTR PPAT$1.4363[rip]
	mov	rcx, QWORD PTR BB$2.4564[rip]
	mov	r8d, DWORD PTR C$2.4553[rip]
	mov	r8d, r8d
	add	r8, r8
	add	rcx, r8
	movzx	ecx, WORD PTR [rcx]
	movzx	ecx, cx
	sal	rcx, 3
	add	rax, rcx
	mov	QWORD PTR [rax], rdx
.L258:
	mov	eax, DWORD PTR C$2.4553[rip]
	add	eax, 1
	mov	DWORD PTR C$2.4553[rip], eax
.L259:
	mov	eax, DWORD PTR C$2.4553[rip]
	cmp	eax, 7
	ja	.L449
	jmp	.L257
.L449:
	nop
.L260:
	mov	rax, QWORD PTR L$2.4557[rip]
	mov	QWORD PTR X$2.4555[rip], rax
	mov	rax, QWORD PTR PPATR$1.4364[rip]
	add	rax, 3808
	mov	QWORD PTR BB$2.4564[rip], rax
	mov	DWORD PTR C$2.4553[rip], 0
.L261:
	mov	rdx, QWORD PTR X$2.4555[rip]
	mov	rax, QWORD PTR PPAT$1.4363[rip]
	mov	rcx, QWORD PTR BB$2.4564[rip]
	mov	r8d, DWORD PTR C$2.4553[rip]
	mov	r8d, r8d
	add	r8, r8
	add	rcx, r8
	movzx	ecx, WORD PTR [rcx]
	movzx	ecx, cx
	sal	rcx, 3
	add	rax, rcx
	mov	QWORD PTR [rax], rdx
.L262:
	mov	eax, DWORD PTR C$2.4553[rip]
	add	eax, 1
	mov	DWORD PTR C$2.4553[rip], eax
.L263:
	mov	eax, DWORD PTR C$2.4553[rip]
	cmp	eax, 7
	ja	.L450
	jmp	.L261
.L450:
	nop
.L264:
	mov	rax, QWORD PTR L$2.4557[rip]
	mov	QWORD PTR X$2.4555[rip], rax
	mov	rax, QWORD PTR PPATR$1.4364[rip]
	add	rax, 2800
	mov	QWORD PTR BB$2.4564[rip], rax
	mov	DWORD PTR C$2.4553[rip], 0
.L265:
	mov	rdx, QWORD PTR X$2.4555[rip]
	mov	rax, QWORD PTR PPAT$1.4363[rip]
	mov	rcx, QWORD PTR BB$2.4564[rip]
	mov	r8d, DWORD PTR C$2.4553[rip]
	mov	r8d, r8d
	add	r8, r8
	add	rcx, r8
	movzx	ecx, WORD PTR [rcx]
	movzx	ecx, cx
	sal	rcx, 3
	add	rax, rcx
	mov	QWORD PTR [rax], rdx
.L266:
	mov	eax, DWORD PTR C$2.4553[rip]
	add	eax, 1
	mov	DWORD PTR C$2.4553[rip], eax
.L267:
	mov	eax, DWORD PTR C$2.4553[rip]
	cmp	eax, 7
	ja	.L451
	jmp	.L265
.L188:
.L268:
.L269:
.L270:
.L431:
	nop
	jmp	.L271
.L451:
	nop
.L271:
	mov	rax, QWORD PTR PUNF$1.4351[rip]
	sub	rax, 1
	mov	QWORD PTR X1$2.4655[rip], rax
	mov	DWORD PTR C1$2.4654[rip], 0
.L272:
	mov	rax, QWORD PTR X1$2.4655[rip]
	add	rax, 1
	mov	QWORD PTR X1$2.4655[rip], rax
	mov	eax, DWORD PTR C1$2.4654[rip]
	shr	eax, 7
	mov	edx, eax
	mov	rax, QWORD PTR X1$2.4655[rip]
	and	edx, 1
	mov	BYTE PTR [rax], dl
	mov	rax, QWORD PTR X1$2.4655[rip]
	add	rax, 1
	mov	QWORD PTR X1$2.4655[rip], rax
	mov	eax, DWORD PTR C1$2.4654[rip]
	shr	eax, 6
	mov	edx, eax
	mov	rax, QWORD PTR X1$2.4655[rip]
	and	edx, 1
	mov	BYTE PTR [rax], dl
	mov	rax, QWORD PTR X1$2.4655[rip]
	add	rax, 1
	mov	QWORD PTR X1$2.4655[rip], rax
	mov	eax, DWORD PTR C1$2.4654[rip]
	shr	eax, 5
	mov	edx, eax
	mov	rax, QWORD PTR X1$2.4655[rip]
	and	edx, 1
	mov	BYTE PTR [rax], dl
	mov	rax, QWORD PTR X1$2.4655[rip]
	add	rax, 1
	mov	QWORD PTR X1$2.4655[rip], rax
	mov	eax, DWORD PTR C1$2.4654[rip]
	shr	eax, 4
	mov	edx, eax
	mov	rax, QWORD PTR X1$2.4655[rip]
	and	edx, 1
	mov	BYTE PTR [rax], dl
	mov	rax, QWORD PTR X1$2.4655[rip]
	add	rax, 1
	mov	QWORD PTR X1$2.4655[rip], rax
	mov	eax, DWORD PTR C1$2.4654[rip]
	shr	eax, 3
	mov	edx, eax
	mov	rax, QWORD PTR X1$2.4655[rip]
	and	edx, 1
	mov	BYTE PTR [rax], dl
	mov	rax, QWORD PTR X1$2.4655[rip]
	add	rax, 1
	mov	QWORD PTR X1$2.4655[rip], rax
	mov	eax, DWORD PTR C1$2.4654[rip]
	shr	eax, 2
	mov	edx, eax
	mov	rax, QWORD PTR X1$2.4655[rip]
	and	edx, 1
	mov	BYTE PTR [rax], dl
	mov	rax, QWORD PTR X1$2.4655[rip]
	add	rax, 1
	mov	QWORD PTR X1$2.4655[rip], rax
	mov	eax, DWORD PTR C1$2.4654[rip]
	shr	eax
	mov	edx, eax
	mov	rax, QWORD PTR X1$2.4655[rip]
	and	edx, 1
	mov	BYTE PTR [rax], dl
	mov	rax, QWORD PTR X1$2.4655[rip]
	add	rax, 1
	mov	QWORD PTR X1$2.4655[rip], rax
	mov	eax, DWORD PTR C1$2.4654[rip]
	mov	edx, eax
	mov	rax, QWORD PTR X1$2.4655[rip]
	and	edx, 1
	mov	BYTE PTR [rax], dl
.L273:
	mov	eax, DWORD PTR C1$2.4654[rip]
	add	eax, 1
	mov	DWORD PTR C1$2.4654[rip], eax
.L274:
	mov	eax, DWORD PTR C1$2.4654[rip]
	cmp	eax, 255
	ja	.L452
	jmp	.L272
.L83:
.L275:
.L276:
.L277:
.L278:
.L279:
.L280:
.L408:
	nop
	jmp	.L281
.L452:
	nop
.L281:
	mov	rax, QWORD PTR PLIN$1.4352[rip]
	mov	QWORD PTR XQ2$2.4667[rip], rax
	mov	DWORD PTR TERT$2.4668[rip], 0
.L282:
	mov	DWORD PTR VLY$2.4669[rip], 0
.L283:
	mov	DWORD PTR VLA$2.4670[rip], 0
.L284:
	mov	rax, QWORD PTR PMEM$[rip]
	mov	edx, DWORD PTR PBASE$[rip]
	mov	ecx, edx
	mov	edx, DWORD PTR TERT$2.4668[rip]
	mov	edx, edx
	add	rdx, rcx
	mov	ecx, DWORD PTR VLY$2.4669[rip]
	mov	ecx, ecx
	add	rdx, rcx
	mov	ecx, DWORD PTR VLA$2.4670[rip]
	mov	ecx, ecx
	add	rdx, rcx
	add	rax, rdx
	mov	QWORD PTR XQ1$2.4666[rip], rax
	mov	rdx, QWORD PTR XQ1$2.4666[rip]
	mov	rax, QWORD PTR XQ2$2.4667[rip]
	mov	rdx, QWORD PTR [rdx]
	mov	QWORD PTR [rax], rdx
	mov	rax, QWORD PTR XQ1$2.4666[rip]
	mov	rdx, QWORD PTR XQ2$2.4667[rip]
	add	rdx, 8
	mov	rax, QWORD PTR 8[rax]
	mov	QWORD PTR [rdx], rax
	mov	rax, QWORD PTR XQ1$2.4666[rip]
	mov	rdx, QWORD PTR XQ2$2.4667[rip]
	add	rdx, 16
	mov	rax, QWORD PTR 16[rax]
	mov	QWORD PTR [rdx], rax
	mov	rax, QWORD PTR XQ1$2.4666[rip]
	mov	rdx, QWORD PTR XQ2$2.4667[rip]
	add	rdx, 24
	mov	rax, QWORD PTR 24[rax]
	mov	QWORD PTR [rdx], rax
	mov	rax, QWORD PTR XQ2$2.4667[rip]
	add	rax, 32
	mov	QWORD PTR XQ2$2.4667[rip], rax
.L285:
	mov	eax, DWORD PTR VLA$2.4670[rip]
	add	eax, 256
	mov	DWORD PTR VLA$2.4670[rip], eax
.L286:
	mov	eax, DWORD PTR VLA$2.4670[rip]
	cmp	eax, 2047
	ja	.L453
	jmp	.L284
.L287:
.L453:
	nop
.L288:
	mov	eax, DWORD PTR VLY$2.4669[rip]
	add	eax, 32
	mov	DWORD PTR VLY$2.4669[rip], eax
.L289:
	mov	eax, DWORD PTR VLY$2.4669[rip]
	cmp	eax, 255
	ja	.L454
	jmp	.L283
.L290:
.L454:
	nop
.L291:
	mov	eax, DWORD PTR TERT$2.4668[rip]
	add	eax, 2048
	mov	DWORD PTR TERT$2.4668[rip], eax
.L292:
	mov	eax, DWORD PTR TERT$2.4668[rip]
	cmp	eax, 6143
	ja	.L455
	jmp	.L282
.L293:
.L294:
.L295:
.L455:
	nop
.L296:
	mov	rax, QWORD PTR PBTB$1.4353[rip]
	add	rax, 257
	mov	QWORD PTR BB2$2.4695[rip], rax
	mov	DWORD PTR VLY$2.4691[rip], 0
.L297:
	mov	rax, QWORD PTR PLIN$1.4352[rip]
	mov	edx, DWORD PTR VLY$2.4691[rip]
	mov	edx, edx
	add	rax, rdx
	mov	QWORD PTR BB1$2.4694[rip], rax
	mov	DWORD PTR VLX$2.4692[rip], 0
.L298:
	mov	rax, QWORD PTR BB1$2.4694[rip]
	movzx	eax, BYTE PTR [rax]
	movzx	eax, al
	mov	DWORD PTR C1$2.4693[rip], eax
	mov	rax, QWORD PTR PUNF$1.4351[rip]
	mov	edx, DWORD PTR C1$2.4693[rip]
	mov	edx, edx
	sal	rdx, 3
	add	rax, rdx
	mov	QWORD PTR XQ1$2.4689[rip], rax
	mov	rax, QWORD PTR BB2$2.4695[rip]
	mov	QWORD PTR XQ2$2.4690[rip], rax
	mov	rdx, QWORD PTR XQ1$2.4689[rip]
	mov	rax, QWORD PTR XQ2$2.4690[rip]
	mov	rdx, QWORD PTR [rdx]
	mov	QWORD PTR [rax], rdx
	mov	rax, QWORD PTR BB1$2.4694[rip]
	add	rax, 1
	movzx	eax, BYTE PTR [rax]
	movzx	eax, al
	mov	DWORD PTR C1$2.4693[rip], eax
	mov	rax, QWORD PTR PUNF$1.4351[rip]
	mov	edx, DWORD PTR C1$2.4693[rip]
	mov	edx, edx
	sal	rdx, 3
	add	rax, rdx
	mov	QWORD PTR XQ1$2.4689[rip], rax
	mov	rax, QWORD PTR XQ2$2.4690[rip]
	add	rax, 8
	mov	QWORD PTR XQ2$2.4690[rip], rax
	mov	rdx, QWORD PTR XQ1$2.4689[rip]
	mov	rax, QWORD PTR XQ2$2.4690[rip]
	mov	rdx, QWORD PTR [rdx]
	mov	QWORD PTR [rax], rdx
	mov	rax, QWORD PTR BB1$2.4694[rip]
	add	rax, 2
	movzx	eax, BYTE PTR [rax]
	movzx	eax, al
	mov	DWORD PTR C1$2.4693[rip], eax
	mov	rax, QWORD PTR PUNF$1.4351[rip]
	mov	edx, DWORD PTR C1$2.4693[rip]
	mov	edx, edx
	sal	rdx, 3
	add	rax, rdx
	mov	QWORD PTR XQ1$2.4689[rip], rax
	mov	rax, QWORD PTR XQ2$2.4690[rip]
	add	rax, 8
	mov	QWORD PTR XQ2$2.4690[rip], rax
	mov	rdx, QWORD PTR XQ1$2.4689[rip]
	mov	rax, QWORD PTR XQ2$2.4690[rip]
	mov	rdx, QWORD PTR [rdx]
	mov	QWORD PTR [rax], rdx
	mov	rax, QWORD PTR BB1$2.4694[rip]
	add	rax, 3
	movzx	eax, BYTE PTR [rax]
	movzx	eax, al
	mov	DWORD PTR C1$2.4693[rip], eax
	mov	rax, QWORD PTR PUNF$1.4351[rip]
	mov	edx, DWORD PTR C1$2.4693[rip]
	mov	edx, edx
	sal	rdx, 3
	add	rax, rdx
	mov	QWORD PTR XQ1$2.4689[rip], rax
	mov	rax, QWORD PTR XQ2$2.4690[rip]
	add	rax, 8
	mov	QWORD PTR XQ2$2.4690[rip], rax
	mov	rdx, QWORD PTR XQ1$2.4689[rip]
	mov	rax, QWORD PTR XQ2$2.4690[rip]
	mov	rdx, QWORD PTR [rdx]
	mov	QWORD PTR [rax], rdx
	mov	rax, QWORD PTR BB2$2.4695[rip]
	add	rax, 32
	mov	QWORD PTR BB2$2.4695[rip], rax
	mov	rax, QWORD PTR BB1$2.4694[rip]
	add	rax, 4
	mov	QWORD PTR BB1$2.4694[rip], rax
.L299:
	mov	eax, DWORD PTR VLX$2.4692[rip]
	add	eax, 4
	mov	DWORD PTR VLX$2.4692[rip], eax
.L300:
	mov	eax, DWORD PTR VLX$2.4692[rip]
	cmp	eax, 31
	ja	.L456
	jmp	.L298
.L456:
	nop
.L301:
	mov	rax, QWORD PTR BB2$2.4695[rip]
	add	rax, 2
	mov	QWORD PTR BB2$2.4695[rip], rax
.L302:
	mov	eax, DWORD PTR VLY$2.4691[rip]
	add	eax, 32
	mov	DWORD PTR VLY$2.4691[rip], eax
.L303:
	mov	eax, DWORD PTR VLY$2.4691[rip]
	cmp	eax, 6143
	ja	.L457
	jmp	.L297
.L304:
.L305:
.L306:
.L307:
.L308:
.L309:
.L457:
	nop
.L310:
	mov	rax, QWORD PTR PBLR$1.4358[rip]
	mov	QWORD PTR X$2.4710[rip], rax
	mov	rax, QWORD PTR PBTB$1.4353[rip]
	mov	QWORD PTR B$2.4717[rip], rax
	mov	rdx, QWORD PTR PCLIM$1.4354[rip]
	mov	rax, QWORD PTR X$2.4710[rip]
	mov	QWORD PTR [rax], rdx
	mov	rax, QWORD PTR X$2.4710[rip]
	add	rax, 8
	mov	QWORD PTR X$2.4710[rip], rax
	mov	rdx, QWORD PTR PCLIM$1.4354[rip]
	mov	rax, QWORD PTR X$2.4710[rip]
	mov	QWORD PTR [rax], rdx
	mov	rax, QWORD PTR X$2.4710[rip]
	add	rax, 8
	mov	QWORD PTR X$2.4710[rip], rax
	mov	DWORD PTR VLY$2.4715[rip], 0
.L311:
	mov	DWORD PTR VLX$2.4716[rip], 0
.L312:
	mov	rax, QWORD PTR B$2.4717[rip]
	movzx	eax, BYTE PTR [rax]
	movzx	eax, al
	sal	rax, 8
	mov	edx, eax
	mov	rax, QWORD PTR B$2.4717[rip]
	add	rax, 1
	movzx	eax, BYTE PTR [rax]
	movzx	eax, al
	sal	rax, 7
	add	edx, eax
	mov	rax, QWORD PTR B$2.4717[rip]
	add	rax, 2
	movzx	eax, BYTE PTR [rax]
	movzx	eax, al
	sal	rax, 6
	add	eax, edx
	mov	DWORD PTR P1$2.4711[rip], eax
	mov	rax, QWORD PTR B$2.4717[rip]
	add	rax, 1
	movzx	eax, BYTE PTR [rax]
	movzx	eax, al
	sal	rax, 8
	mov	edx, eax
	mov	rax, QWORD PTR B$2.4717[rip]
	add	rax, 2
	movzx	eax, BYTE PTR [rax]
	movzx	eax, al
	sal	rax, 7
	add	edx, eax
	mov	rax, QWORD PTR B$2.4717[rip]
	add	rax, 3
	movzx	eax, BYTE PTR [rax]
	movzx	eax, al
	sal	rax, 6
	add	eax, edx
	mov	DWORD PTR P2$2.4712[rip], eax
	mov	rax, QWORD PTR B$2.4717[rip]
	add	rax, 2
	movzx	eax, BYTE PTR [rax]
	movzx	eax, al
	sal	rax, 8
	mov	edx, eax
	mov	rax, QWORD PTR B$2.4717[rip]
	add	rax, 3
	movzx	eax, BYTE PTR [rax]
	movzx	eax, al
	sal	rax, 7
	add	edx, eax
	mov	rax, QWORD PTR B$2.4717[rip]
	add	rax, 4
	movzx	eax, BYTE PTR [rax]
	movzx	eax, al
	sal	rax, 6
	add	eax, edx
	mov	DWORD PTR P3$2.4713[rip], eax
	mov	rax, QWORD PTR B$2.4717[rip]
	add	rax, 3
	movzx	eax, BYTE PTR [rax]
	movzx	eax, al
	sal	rax, 8
	mov	edx, eax
	mov	rax, QWORD PTR B$2.4717[rip]
	add	rax, 4
	movzx	eax, BYTE PTR [rax]
	movzx	eax, al
	sal	rax, 7
	add	edx, eax
	mov	rax, QWORD PTR B$2.4717[rip]
	add	rax, 5
	movzx	eax, BYTE PTR [rax]
	movzx	eax, al
	sal	rax, 6
	add	eax, edx
	mov	DWORD PTR P4$2.4714[rip], eax
	mov	rax, QWORD PTR B$2.4717[rip]
	add	rax, 258
	movzx	eax, BYTE PTR [rax]
	movzx	eax, al
	sal	rax, 5
	mov	edx, eax
	mov	eax, DWORD PTR P1$2.4711[rip]
	add	edx, eax
	mov	rax, QWORD PTR B$2.4717[rip]
	add	rax, 259
	movzx	eax, BYTE PTR [rax]
	movzx	eax, al
	sal	rax, 4
	add	edx, eax
	mov	rax, QWORD PTR B$2.4717[rip]
	add	rax, 260
	movzx	eax, BYTE PTR [rax]
	movzx	eax, al
	sal	rax, 3
	add	eax, edx
	mov	DWORD PTR P1$2.4711[rip], eax
	mov	rax, QWORD PTR B$2.4717[rip]
	add	rax, 259
	movzx	eax, BYTE PTR [rax]
	movzx	eax, al
	sal	rax, 5
	mov	edx, eax
	mov	eax, DWORD PTR P2$2.4712[rip]
	add	edx, eax
	mov	rax, QWORD PTR B$2.4717[rip]
	add	rax, 260
	movzx	eax, BYTE PTR [rax]
	movzx	eax, al
	sal	rax, 4
	add	edx, eax
	mov	rax, QWORD PTR B$2.4717[rip]
	add	rax, 261
	movzx	eax, BYTE PTR [rax]
	movzx	eax, al
	sal	rax, 3
	add	eax, edx
	mov	DWORD PTR P2$2.4712[rip], eax
	mov	rax, QWORD PTR B$2.4717[rip]
	add	rax, 260
	movzx	eax, BYTE PTR [rax]
	movzx	eax, al
	sal	rax, 5
	mov	edx, eax
	mov	eax, DWORD PTR P3$2.4713[rip]
	add	edx, eax
	mov	rax, QWORD PTR B$2.4717[rip]
	add	rax, 261
	movzx	eax, BYTE PTR [rax]
	movzx	eax, al
	sal	rax, 4
	add	edx, eax
	mov	rax, QWORD PTR B$2.4717[rip]
	add	rax, 262
	movzx	eax, BYTE PTR [rax]
	movzx	eax, al
	sal	rax, 3
	add	eax, edx
	mov	DWORD PTR P3$2.4713[rip], eax
	mov	rax, QWORD PTR B$2.4717[rip]
	add	rax, 261
	movzx	eax, BYTE PTR [rax]
	movzx	eax, al
	sal	rax, 5
	mov	edx, eax
	mov	eax, DWORD PTR P4$2.4714[rip]
	add	edx, eax
	mov	rax, QWORD PTR B$2.4717[rip]
	add	rax, 262
	movzx	eax, BYTE PTR [rax]
	movzx	eax, al
	sal	rax, 4
	add	edx, eax
	mov	rax, QWORD PTR B$2.4717[rip]
	add	rax, 263
	movzx	eax, BYTE PTR [rax]
	movzx	eax, al
	sal	rax, 3
	add	eax, edx
	mov	DWORD PTR P4$2.4714[rip], eax
	mov	rax, QWORD PTR B$2.4717[rip]
	add	rax, 516
	movzx	eax, BYTE PTR [rax]
	movzx	eax, al
	sal	rax, 2
	mov	edx, eax
	mov	eax, DWORD PTR P1$2.4711[rip]
	add	edx, eax
	mov	rax, QWORD PTR B$2.4717[rip]
	add	rax, 517
	movzx	eax, BYTE PTR [rax]
	movzx	eax, al
	add	rax, rax
	add	edx, eax
	mov	rax, QWORD PTR B$2.4717[rip]
	add	rax, 518
	movzx	eax, BYTE PTR [rax]
	movzx	eax, al
	add	eax, edx
	mov	DWORD PTR P1$2.4711[rip], eax
	mov	rax, QWORD PTR B$2.4717[rip]
	add	rax, 517
	movzx	eax, BYTE PTR [rax]
	movzx	eax, al
	sal	rax, 2
	mov	edx, eax
	mov	eax, DWORD PTR P2$2.4712[rip]
	add	edx, eax
	mov	rax, QWORD PTR B$2.4717[rip]
	add	rax, 518
	movzx	eax, BYTE PTR [rax]
	movzx	eax, al
	add	rax, rax
	add	edx, eax
	mov	rax, QWORD PTR B$2.4717[rip]
	add	rax, 519
	movzx	eax, BYTE PTR [rax]
	movzx	eax, al
	add	eax, edx
	mov	DWORD PTR P2$2.4712[rip], eax
	mov	rax, QWORD PTR B$2.4717[rip]
	add	rax, 518
	movzx	eax, BYTE PTR [rax]
	movzx	eax, al
	sal	rax, 2
	mov	edx, eax
	mov	eax, DWORD PTR P3$2.4713[rip]
	add	edx, eax
	mov	rax, QWORD PTR B$2.4717[rip]
	add	rax, 519
	movzx	eax, BYTE PTR [rax]
	movzx	eax, al
	add	rax, rax
	add	edx, eax
	mov	rax, QWORD PTR B$2.4717[rip]
	add	rax, 520
	movzx	eax, BYTE PTR [rax]
	movzx	eax, al
	add	eax, edx
	mov	DWORD PTR P3$2.4713[rip], eax
	mov	rax, QWORD PTR B$2.4717[rip]
	add	rax, 519
	movzx	eax, BYTE PTR [rax]
	movzx	eax, al
	sal	rax, 2
	mov	edx, eax
	mov	eax, DWORD PTR P4$2.4714[rip]
	add	edx, eax
	mov	rax, QWORD PTR B$2.4717[rip]
	add	rax, 520
	movzx	eax, BYTE PTR [rax]
	movzx	eax, al
	add	rax, rax
	add	edx, eax
	mov	rax, QWORD PTR B$2.4717[rip]
	add	rax, 521
	movzx	eax, BYTE PTR [rax]
	movzx	eax, al
	add	eax, edx
	mov	DWORD PTR P4$2.4714[rip], eax
	mov	rax, QWORD PTR PPAT$1.4363[rip]
	mov	edx, DWORD PTR P1$2.4711[rip]
	mov	edx, edx
	sal	rdx, 3
	add	rdx, rax
	mov	rax, QWORD PTR X$2.4710[rip]
	mov	rdx, QWORD PTR [rdx]
	mov	QWORD PTR [rax], rdx
	mov	rax, QWORD PTR PPAT$1.4363[rip]
	mov	edx, DWORD PTR P2$2.4712[rip]
	mov	edx, edx
	sal	rdx, 3
	add	rax, rdx
	mov	rdx, QWORD PTR X$2.4710[rip]
	add	rdx, 8
	mov	rax, QWORD PTR [rax]
	mov	QWORD PTR [rdx], rax
	mov	rax, QWORD PTR PPAT$1.4363[rip]
	mov	edx, DWORD PTR P3$2.4713[rip]
	mov	edx, edx
	sal	rdx, 3
	add	rax, rdx
	mov	rdx, QWORD PTR X$2.4710[rip]
	add	rdx, 16
	mov	rax, QWORD PTR [rax]
	mov	QWORD PTR [rdx], rax
	mov	rax, QWORD PTR PPAT$1.4363[rip]
	mov	edx, DWORD PTR P4$2.4714[rip]
	mov	edx, edx
	sal	rdx, 3
	add	rax, rdx
	mov	rdx, QWORD PTR X$2.4710[rip]
	add	rdx, 24
	mov	rax, QWORD PTR [rax]
	mov	QWORD PTR [rdx], rax
	mov	rax, QWORD PTR X$2.4710[rip]
	add	rax, 32
	mov	QWORD PTR X$2.4710[rip], rax
	mov	rax, QWORD PTR B$2.4717[rip]
	add	rax, 4
	mov	QWORD PTR B$2.4717[rip], rax
.L313:
	mov	eax, DWORD PTR VLX$2.4716[rip]
	add	eax, 1
	mov	DWORD PTR VLX$2.4716[rip], eax
.L314:
	mov	eax, DWORD PTR VLX$2.4716[rip]
	cmp	eax, 63
	ja	.L458
	jmp	.L312
.L458:
	nop
.L315:
	mov	rax, QWORD PTR B$2.4717[rip]
	add	rax, 2
	mov	QWORD PTR B$2.4717[rip], rax
.L316:
	mov	eax, DWORD PTR VLY$2.4715[rip]
	add	eax, 1
	mov	DWORD PTR VLY$2.4715[rip], eax
.L317:
	mov	eax, DWORD PTR VLY$2.4715[rip]
	cmp	eax, 191
	ja	.L459
	jmp	.L311
.L318:
.L319:
.L320:
.L459:
	nop
.L321:
	mov	eax, DWORD PTR PBASE$[rip]
	mov	DWORD PTR C1$2.4733[rip], eax
	mov	eax, DWORD PTR ABASE$[rip]
	mov	DWORD PTR C2$2.4734[rip], eax
	mov	rax, QWORD PTR PQPX$1.4360[rip]
	add	rax, 288
	mov	QWORD PTR XQ3$2.4731[rip], rax
	mov	QWORD PTR V2$2.4740[rip], 0
	mov	DWORD PTR TERT$2.4735[rip], 0
.L322:
	mov	DWORD PTR VLY$2.4736[rip], 0
.L323:
	mov	DWORD PTR VLA$2.4737[rip], 0
.L324:
	mov	DWORD PTR VLX$2.4738[rip], 0
.L325:
	mov	rax, QWORD PTR PMEM$[rip]
	mov	edx, DWORD PTR C1$2.4733[rip]
	mov	edx, edx
	add	rax, rdx
	mov	QWORD PTR XQ1$2.4729[rip], rax
	mov	rax, QWORD PTR XQ1$2.4729[rip]
	mov	rax, QWORD PTR [rax]
	mov	QWORD PTR V3$2.4741[rip], rax
	mov	rax, QWORD PTR V3$2.4741[rip]
	mov	QWORD PTR V5$2.4743[rip], rax
	mov	rax, QWORD PTR PMEM$[rip]
	mov	edx, DWORD PTR C2$2.4734[rip]
	mov	edx, edx
	add	rax, rdx
	mov	QWORD PTR XQ2$2.4730[rip], rax
	mov	rax, QWORD PTR XQ2$2.4730[rip]
	mov	rax, QWORD PTR [rax]
	mov	QWORD PTR V4$2.4742[rip], rax
	mov	rax, QWORD PTR PQPL$1.4361[rip]
	mov	rdx, QWORD PTR V4$2.4742[rip]
	sal	rdx, 8
	movzx	ecx, dx
	mov	rdx, QWORD PTR V3$2.4741[rip]
	movzx	edx, dl
	add	rdx, rcx
	sal	rdx, 2
	add	rax, rdx
	mov	QWORD PTR T1$2.4744[rip], rax
	mov	rax, QWORD PTR V3$2.4741[rip]
	shr	rax, 8
	mov	QWORD PTR V3$2.4741[rip], rax
	mov	rax, QWORD PTR V4$2.4742[rip]
	shr	rax, 8
	mov	QWORD PTR V4$2.4742[rip], rax
	mov	rax, QWORD PTR PQPL$1.4361[rip]
	mov	rdx, QWORD PTR V4$2.4742[rip]
	sal	rdx, 8
	movzx	ecx, dx
	mov	rdx, QWORD PTR V3$2.4741[rip]
	movzx	edx, dl
	add	rdx, rcx
	sal	rdx, 2
	add	rax, rdx
	mov	QWORD PTR T2$2.4745[rip], rax
	mov	rax, QWORD PTR V3$2.4741[rip]
	shr	rax, 8
	mov	QWORD PTR V3$2.4741[rip], rax
	mov	rax, QWORD PTR V4$2.4742[rip]
	shr	rax, 8
	mov	QWORD PTR V4$2.4742[rip], rax
	mov	rax, QWORD PTR T1$2.4744[rip]
	mov	eax, DWORD PTR [rax]
	mov	eax, eax
	sal	rax, 32
	mov	rdx, rax
	mov	rax, QWORD PTR T2$2.4745[rip]
	mov	eax, DWORD PTR [rax]
	mov	eax, eax
	add	rax, rdx
	mov	QWORD PTR V1$2.4739[rip], rax
	mov	rax, QWORD PTR V1$2.4739[rip]
	shr	rax, 8
	mov	rcx, rax
	mov	rdx, QWORD PTR V2$2.4740[rip]
	mov	rax, QWORD PTR XQ3$2.4731[rip]
	add	rdx, rcx
	mov	QWORD PTR [rax], rdx
	mov	rax, QWORD PTR V1$2.4739[rip]
	sal	rax, 56
	mov	QWORD PTR V2$2.4740[rip], rax
	mov	rax, QWORD PTR XQ3$2.4731[rip]
	add	rax, 8
	mov	QWORD PTR XQ3$2.4731[rip], rax
	mov	rax, QWORD PTR PQPL$1.4361[rip]
	mov	rdx, QWORD PTR V4$2.4742[rip]
	sal	rdx, 8
	movzx	ecx, dx
	mov	rdx, QWORD PTR V3$2.4741[rip]
	movzx	edx, dl
	add	rdx, rcx
	sal	rdx, 2
	add	rax, rdx
	mov	QWORD PTR T1$2.4744[rip], rax
	mov	rax, QWORD PTR V3$2.4741[rip]
	shr	rax, 8
	mov	QWORD PTR V3$2.4741[rip], rax
	mov	rax, QWORD PTR V4$2.4742[rip]
	shr	rax, 8
	mov	QWORD PTR V4$2.4742[rip], rax
	mov	rax, QWORD PTR PQPL$1.4361[rip]
	mov	rdx, QWORD PTR V4$2.4742[rip]
	sal	rdx, 8
	movzx	ecx, dx
	mov	rdx, QWORD PTR V3$2.4741[rip]
	movzx	edx, dl
	add	rdx, rcx
	sal	rdx, 2
	add	rax, rdx
	mov	QWORD PTR T2$2.4745[rip], rax
	mov	rax, QWORD PTR V3$2.4741[rip]
	shr	rax, 8
	mov	QWORD PTR V3$2.4741[rip], rax
	mov	rax, QWORD PTR V4$2.4742[rip]
	shr	rax, 8
	mov	QWORD PTR V4$2.4742[rip], rax
	mov	rax, QWORD PTR T1$2.4744[rip]
	mov	eax, DWORD PTR [rax]
	mov	eax, eax
	sal	rax, 32
	mov	rdx, rax
	mov	rax, QWORD PTR T2$2.4745[rip]
	mov	eax, DWORD PTR [rax]
	mov	eax, eax
	add	rax, rdx
	mov	QWORD PTR V1$2.4739[rip], rax
	mov	rax, QWORD PTR V1$2.4739[rip]
	shr	rax, 8
	mov	rcx, rax
	mov	rdx, QWORD PTR V2$2.4740[rip]
	mov	rax, QWORD PTR XQ3$2.4731[rip]
	add	rdx, rcx
	mov	QWORD PTR [rax], rdx
	mov	rax, QWORD PTR V1$2.4739[rip]
	sal	rax, 56
	mov	QWORD PTR V2$2.4740[rip], rax
	mov	rax, QWORD PTR XQ3$2.4731[rip]
	add	rax, 8
	mov	QWORD PTR XQ3$2.4731[rip], rax
	mov	rax, QWORD PTR PQPL$1.4361[rip]
	mov	rdx, QWORD PTR V4$2.4742[rip]
	sal	rdx, 8
	movzx	ecx, dx
	mov	rdx, QWORD PTR V3$2.4741[rip]
	movzx	edx, dl
	add	rdx, rcx
	sal	rdx, 2
	add	rax, rdx
	mov	QWORD PTR T1$2.4744[rip], rax
	mov	rax, QWORD PTR V3$2.4741[rip]
	shr	rax, 8
	mov	QWORD PTR V3$2.4741[rip], rax
	mov	rax, QWORD PTR V4$2.4742[rip]
	shr	rax, 8
	mov	QWORD PTR V4$2.4742[rip], rax
	mov	rax, QWORD PTR PQPL$1.4361[rip]
	mov	rdx, QWORD PTR V4$2.4742[rip]
	sal	rdx, 8
	movzx	ecx, dx
	mov	rdx, QWORD PTR V3$2.4741[rip]
	movzx	edx, dl
	add	rdx, rcx
	sal	rdx, 2
	add	rax, rdx
	mov	QWORD PTR T2$2.4745[rip], rax
	mov	rax, QWORD PTR V3$2.4741[rip]
	shr	rax, 8
	mov	QWORD PTR V3$2.4741[rip], rax
	mov	rax, QWORD PTR V4$2.4742[rip]
	shr	rax, 8
	mov	QWORD PTR V4$2.4742[rip], rax
	mov	rax, QWORD PTR T1$2.4744[rip]
	mov	eax, DWORD PTR [rax]
	mov	eax, eax
	sal	rax, 32
	mov	rdx, rax
	mov	rax, QWORD PTR T2$2.4745[rip]
	mov	eax, DWORD PTR [rax]
	mov	eax, eax
	add	rax, rdx
	mov	QWORD PTR V1$2.4739[rip], rax
	mov	rax, QWORD PTR V1$2.4739[rip]
	shr	rax, 8
	mov	rcx, rax
	mov	rdx, QWORD PTR V2$2.4740[rip]
	mov	rax, QWORD PTR XQ3$2.4731[rip]
	add	rdx, rcx
	mov	QWORD PTR [rax], rdx
	mov	rax, QWORD PTR V1$2.4739[rip]
	sal	rax, 56
	mov	QWORD PTR V2$2.4740[rip], rax
	mov	rax, QWORD PTR XQ3$2.4731[rip]
	add	rax, 8
	mov	QWORD PTR XQ3$2.4731[rip], rax
	mov	rax, QWORD PTR PQPL$1.4361[rip]
	mov	rdx, QWORD PTR V4$2.4742[rip]
	sal	rdx, 8
	movzx	ecx, dx
	mov	rdx, QWORD PTR V3$2.4741[rip]
	movzx	edx, dl
	add	rdx, rcx
	sal	rdx, 2
	add	rax, rdx
	mov	QWORD PTR T1$2.4744[rip], rax
	mov	rax, QWORD PTR V3$2.4741[rip]
	shr	rax, 8
	mov	QWORD PTR V3$2.4741[rip], rax
	mov	rax, QWORD PTR V4$2.4742[rip]
	shr	rax, 8
	mov	QWORD PTR V4$2.4742[rip], rax
	mov	rax, QWORD PTR PQPL$1.4361[rip]
	mov	rdx, QWORD PTR V4$2.4742[rip]
	sal	rdx, 8
	movzx	ecx, dx
	mov	rdx, QWORD PTR V3$2.4741[rip]
	movzx	edx, dl
	add	rdx, rcx
	sal	rdx, 2
	add	rax, rdx
	mov	QWORD PTR T2$2.4745[rip], rax
	mov	rax, QWORD PTR T1$2.4744[rip]
	mov	eax, DWORD PTR [rax]
	mov	eax, eax
	sal	rax, 32
	mov	rdx, rax
	mov	rax, QWORD PTR T2$2.4745[rip]
	mov	eax, DWORD PTR [rax]
	mov	eax, eax
	add	rax, rdx
	mov	QWORD PTR V1$2.4739[rip], rax
	mov	rax, QWORD PTR V1$2.4739[rip]
	shr	rax, 8
	mov	rcx, rax
	mov	rdx, QWORD PTR V2$2.4740[rip]
	mov	rax, QWORD PTR XQ3$2.4731[rip]
	add	rdx, rcx
	mov	QWORD PTR [rax], rdx
	mov	rax, QWORD PTR V1$2.4739[rip]
	sal	rax, 56
	mov	QWORD PTR V2$2.4740[rip], rax
	mov	rax, QWORD PTR XQ3$2.4731[rip]
	add	rax, 8
	mov	QWORD PTR XQ3$2.4731[rip], rax
	mov	eax, DWORD PTR C1$2.4733[rip]
	add	eax, 8
	mov	DWORD PTR C1$2.4733[rip], eax
	mov	eax, DWORD PTR C2$2.4734[rip]
	add	eax, 8
	mov	DWORD PTR C2$2.4734[rip], eax
.L326:
	mov	eax, DWORD PTR VLX$2.4738[rip]
	add	eax, 8
	mov	DWORD PTR VLX$2.4738[rip], eax
.L327:
	mov	eax, DWORD PTR VLX$2.4738[rip]
	cmp	eax, 31
	ja	.L460
	jmp	.L325
.L460:
	nop
.L328:
	mov	rax, QWORD PTR XQ3$2.4731[rip]
	mov	rdx, QWORD PTR V2$2.4740[rip]
	mov	QWORD PTR [rax], rdx
	mov	QWORD PTR V2$2.4740[rip], 0
	mov	rax, QWORD PTR XQ3$2.4731[rip]
	add	rax, 16
	mov	QWORD PTR XQ3$2.4731[rip], rax
	mov	eax, DWORD PTR C2$2.4734[rip]
	sub	eax, 32
	mov	DWORD PTR C2$2.4734[rip], eax
	mov	eax, DWORD PTR C1$2.4733[rip]
	add	eax, 224
	mov	DWORD PTR C1$2.4733[rip], eax
.L329:
	mov	eax, DWORD PTR VLA$2.4737[rip]
	add	eax, 1
	mov	DWORD PTR VLA$2.4737[rip], eax
.L330:
	mov	eax, DWORD PTR VLA$2.4737[rip]
	cmp	eax, 7
	ja	.L461
	jmp	.L324
.L461:
	nop
.L331:
	mov	eax, DWORD PTR C2$2.4734[rip]
	add	eax, 32
	mov	DWORD PTR C2$2.4734[rip], eax
	mov	eax, DWORD PTR C1$2.4733[rip]
	sub	eax, 2016
	mov	DWORD PTR C1$2.4733[rip], eax
.L332:
	mov	eax, DWORD PTR VLY$2.4736[rip]
	add	eax, 1
	mov	DWORD PTR VLY$2.4736[rip], eax
.L333:
	mov	eax, DWORD PTR VLY$2.4736[rip]
	cmp	eax, 7
	ja	.L462
	jmp	.L323
.L462:
	nop
.L334:
	mov	eax, DWORD PTR C1$2.4733[rip]
	add	eax, 1792
	mov	DWORD PTR C1$2.4733[rip], eax
.L335:
	mov	eax, DWORD PTR TERT$2.4735[rip]
	add	eax, 1
	mov	DWORD PTR TERT$2.4735[rip], eax
.L336:
	mov	eax, DWORD PTR TERT$2.4735[rip]
	cmp	eax, 2
	ja	.L463
	jmp	.L322
.L337:
.L338:
.L339:
.L463:
	nop
.L340:
	mov	rax, QWORD PTR PQPX$1.4360[rip]
	mov	QWORD PTR Q2$2.4794[rip], rax
	mov	rax, QWORD PTR PBLR$1.4358[rip]
	mov	QWORD PTR UB1$2.4793[rip], rax
	mov	DWORD PTR RY$2.4805[rip], 0
.L341:
	mov	rax, QWORD PTR Q2$2.4794[rip]
	mov	rax, QWORD PTR [rax]
	mov	QWORD PTR E1$2.4782[rip], rax
	mov	rax, QWORD PTR Q2$2.4794[rip]
	mov	rax, QWORD PTR 8[rax]
	mov	QWORD PTR E3$2.4784[rip], rax
	mov	rax, QWORD PTR Q2$2.4794[rip]
	mov	rax, QWORD PTR 144[rax]
	mov	QWORD PTR V1$2.4772[rip], rax
	mov	rax, QWORD PTR Q2$2.4794[rip]
	mov	rax, QWORD PTR 152[rax]
	mov	QWORD PTR V4$2.4775[rip], rax
	mov	rax, QWORD PTR Q2$2.4794[rip]
	mov	rax, QWORD PTR 288[rax]
	mov	QWORD PTR V2$2.4773[rip], rax
	mov	rax, QWORD PTR Q2$2.4794[rip]
	mov	rax, QWORD PTR 296[rax]
	mov	QWORD PTR V5$2.4776[rip], rax
	mov	rax, QWORD PTR Q2$2.4794[rip]
	mov	rax, QWORD PTR 432[rax]
	mov	QWORD PTR V3$2.4774[rip], rax
	mov	rax, QWORD PTR Q2$2.4794[rip]
	mov	rax, QWORD PTR 440[rax]
	mov	QWORD PTR V6$2.4777[rip], rax
	mov	rax, QWORD PTR Q2$2.4794[rip]
	mov	rax, QWORD PTR 576[rax]
	mov	QWORD PTR E2$2.4783[rip], rax
	mov	rax, QWORD PTR Q2$2.4794[rip]
	mov	rax, QWORD PTR 584[rax]
	mov	QWORD PTR E4$2.4785[rip], rax
	mov	DWORD PTR VLX$2.4798[rip], 16
	mov	rax, QWORD PTR PSS$1.4362[rip]
	mov	edx, DWORD PTR RY$2.4805[rip]
	mov	edx, edx
	sal	rdx, 10
	add	rdx, 28
	add	rax, rdx
	mov	QWORD PTR Q1$2.4796[rip], rax
	mov	rax, QWORD PTR Q2$2.4794[rip]
	add	rax, 16
	mov	QWORD PTR Q3$2.4795[rip], rax
	mov	DWORD PTR HOR$2.4800[rip], 1
.L342:
	mov	rax, QWORD PTR PPQM$1.4359[rip]
	mov	rdx, QWORD PTR E1$2.4782[rip]
	shr	rdx, 48
	sal	rdx, 3
	add	rax, rdx
	mov	rax, QWORD PTR [rax]
	mov	QWORD PTR V7$2.4778[rip], rax
	mov	rax, QWORD PTR PPQM$1.4359[rip]
	mov	rdx, QWORD PTR E2$2.4783[rip]
	shr	rdx, 48
	sal	rdx, 3
	add	rax, rdx
	mov	rdx, QWORD PTR [rax]
	mov	rax, QWORD PTR V7$2.4778[rip]
	add	rax, rdx
	mov	QWORD PTR V7$2.4778[rip], rax
	mov	rax, QWORD PTR PPQM$1.4359[rip]
	mov	rdx, QWORD PTR V1$2.4772[rip]
	mov	rcx, rdx
	shr	rcx, 48
	mov	rdx, QWORD PTR MF000$2.4791[rip]
	and	rdx, rcx
	sal	rdx, 3
	mov	r8, rdx
	mov	rdx, QWORD PTR V1$2.4772[rip]
	mov	rcx, rdx
	shr	rcx, 36
	mov	rdx, QWORD PTR MF00$2.4790[rip]
	and	rdx, rcx
	sal	rdx, 3
	lea	rcx, [r8+rdx]
	mov	rdx, QWORD PTR V2$2.4773[rip]
	shr	rdx, 56
	mov	r8, rdx
	mov	rdx, QWORD PTR MF0$2.4789[rip]
	and	rdx, r8
	sal	rdx, 3
	add	rcx, rdx
	mov	rdx, QWORD PTR V2$2.4773[rip]
	shr	rdx, 44
	mov	r8, rdx
	mov	rdx, QWORD PTR MF$2.4787[rip]
	and	rdx, r8
	sal	rdx, 3
	add	rdx, rcx
	add	rax, rdx
	mov	rdx, QWORD PTR [rax]
	mov	rax, QWORD PTR V7$2.4778[rip]
	add	rax, rdx
	mov	QWORD PTR V7$2.4778[rip], rax
	mov	rax, QWORD PTR PPQM$1.4359[rip]
	mov	rdx, QWORD PTR E1$2.4782[rip]
	mov	rcx, rdx
	shr	rcx, 44
	mov	rdx, QWORD PTR M$2.4786[rip]
	and	rdx, rcx
	sal	rdx, 3
	add	rax, rdx
	mov	rax, QWORD PTR [rax]
	mov	QWORD PTR V8$2.4779[rip], rax
	mov	rax, QWORD PTR PPQM$1.4359[rip]
	mov	rdx, QWORD PTR E2$2.4783[rip]
	mov	rcx, rdx
	shr	rcx, 44
	mov	rdx, QWORD PTR M$2.4786[rip]
	and	rdx, rcx
	sal	rdx, 3
	add	rax, rdx
	mov	rdx, QWORD PTR [rax]
	mov	rax, QWORD PTR V8$2.4779[rip]
	add	rax, rdx
	mov	QWORD PTR V8$2.4779[rip], rax
	mov	rax, QWORD PTR PPQM$1.4359[rip]
	mov	rdx, QWORD PTR V1$2.4772[rip]
	mov	rcx, rdx
	shr	rcx, 44
	mov	rdx, QWORD PTR MF000$2.4791[rip]
	and	rdx, rcx
	sal	rdx, 3
	mov	r8, rdx
	mov	rdx, QWORD PTR V1$2.4772[rip]
	mov	rcx, rdx
	shr	rcx, 32
	mov	rdx, QWORD PTR MF00$2.4790[rip]
	and	rdx, rcx
	sal	rdx, 3
	lea	rcx, [r8+rdx]
	mov	rdx, QWORD PTR V2$2.4773[rip]
	shr	rdx, 52
	mov	r8, rdx
	mov	rdx, QWORD PTR MF0$2.4789[rip]
	and	rdx, r8
	sal	rdx, 3
	add	rcx, rdx
	mov	rdx, QWORD PTR V2$2.4773[rip]
	shr	rdx, 40
	mov	r8, rdx
	mov	rdx, QWORD PTR MF$2.4787[rip]
	and	rdx, r8
	sal	rdx, 3
	add	rdx, rcx
	add	rax, rdx
	mov	rdx, QWORD PTR [rax]
	mov	rax, QWORD PTR V8$2.4779[rip]
	add	rax, rdx
	mov	QWORD PTR V8$2.4779[rip], rax
	mov	rax, QWORD PTR PPQM$1.4359[rip]
	mov	rdx, QWORD PTR E1$2.4782[rip]
	mov	rcx, rdx
	shr	rcx, 40
	mov	rdx, QWORD PTR M$2.4786[rip]
	and	rdx, rcx
	sal	rdx, 3
	add	rax, rdx
	mov	rax, QWORD PTR [rax]
	mov	QWORD PTR V9$2.4780[rip], rax
	mov	rax, QWORD PTR PPQM$1.4359[rip]
	mov	rdx, QWORD PTR E2$2.4783[rip]
	mov	rcx, rdx
	shr	rcx, 40
	mov	rdx, QWORD PTR M$2.4786[rip]
	and	rdx, rcx
	sal	rdx, 3
	add	rax, rdx
	mov	rdx, QWORD PTR [rax]
	mov	rax, QWORD PTR V9$2.4780[rip]
	add	rax, rdx
	mov	QWORD PTR V9$2.4780[rip], rax
	mov	rax, QWORD PTR PPQM$1.4359[rip]
	mov	rdx, QWORD PTR V1$2.4772[rip]
	mov	rcx, rdx
	shr	rcx, 40
	mov	rdx, QWORD PTR MF000$2.4791[rip]
	and	rdx, rcx
	sal	rdx, 3
	mov	r8, rdx
	mov	rdx, QWORD PTR V1$2.4772[rip]
	mov	rcx, rdx
	shr	rcx, 28
	mov	rdx, QWORD PTR MF00$2.4790[rip]
	and	rdx, rcx
	sal	rdx, 3
	lea	rcx, [r8+rdx]
	mov	rdx, QWORD PTR V2$2.4773[rip]
	shr	rdx, 48
	mov	r8, rdx
	mov	rdx, QWORD PTR MF0$2.4789[rip]
	and	rdx, r8
	sal	rdx, 3
	add	rcx, rdx
	mov	rdx, QWORD PTR V2$2.4773[rip]
	shr	rdx, 36
	mov	r8, rdx
	mov	rdx, QWORD PTR MF$2.4787[rip]
	and	rdx, r8
	sal	rdx, 3
	add	rdx, rcx
	add	rax, rdx
	mov	rdx, QWORD PTR [rax]
	mov	rax, QWORD PTR V9$2.4780[rip]
	add	rax, rdx
	mov	QWORD PTR V9$2.4780[rip], rax
	mov	rax, QWORD PTR PPQM$1.4359[rip]
	mov	rdx, QWORD PTR E1$2.4782[rip]
	mov	rcx, rdx
	shr	rcx, 36
	mov	rdx, QWORD PTR M$2.4786[rip]
	and	rdx, rcx
	sal	rdx, 3
	add	rax, rdx
	mov	rax, QWORD PTR [rax]
	mov	QWORD PTR V0$2.4771[rip], rax
	mov	rax, QWORD PTR PPQM$1.4359[rip]
	mov	rdx, QWORD PTR E2$2.4783[rip]
	mov	rcx, rdx
	shr	rcx, 36
	mov	rdx, QWORD PTR M$2.4786[rip]
	and	rdx, rcx
	sal	rdx, 3
	add	rax, rdx
	mov	rdx, QWORD PTR [rax]
	mov	rax, QWORD PTR V0$2.4771[rip]
	add	rax, rdx
	mov	QWORD PTR V0$2.4771[rip], rax
	mov	rax, QWORD PTR PPQM$1.4359[rip]
	mov	rdx, QWORD PTR V1$2.4772[rip]
	mov	rcx, rdx
	shr	rcx, 36
	mov	rdx, QWORD PTR MF000$2.4791[rip]
	and	rdx, rcx
	sal	rdx, 3
	mov	r8, rdx
	mov	rdx, QWORD PTR V1$2.4772[rip]
	mov	rcx, rdx
	shr	rcx, 24
	mov	rdx, QWORD PTR MF00$2.4790[rip]
	and	rdx, rcx
	sal	rdx, 3
	lea	rcx, [r8+rdx]
	mov	rdx, QWORD PTR V2$2.4773[rip]
	shr	rdx, 44
	mov	r8, rdx
	mov	rdx, QWORD PTR MF0$2.4789[rip]
	and	rdx, r8
	sal	rdx, 3
	add	rcx, rdx
	mov	rdx, QWORD PTR V2$2.4773[rip]
	shr	rdx, 32
	mov	r8, rdx
	mov	rdx, QWORD PTR MF$2.4787[rip]
	and	rdx, r8
	sal	rdx, 3
	add	rdx, rcx
	add	rax, rdx
	mov	rdx, QWORD PTR [rax]
	mov	rax, QWORD PTR V0$2.4771[rip]
	add	rax, rdx
	mov	QWORD PTR V0$2.4771[rip], rax
	mov	rax, QWORD PTR PPQM$1.4359[rip]
	mov	rdx, QWORD PTR E1$2.4782[rip]
	mov	rcx, rdx
	shr	rcx, 32
	mov	rdx, QWORD PTR MF000$2.4791[rip]
	and	rdx, rcx
	sal	rdx, 3
	mov	r8, rdx
	mov	rdx, QWORD PTR V3$2.4774[rip]
	mov	rcx, rdx
	shr	rcx, 52
	mov	rdx, QWORD PTR MF00$2.4790[rip]
	and	rdx, rcx
	sal	rdx, 3
	lea	rcx, [r8+rdx]
	mov	rdx, QWORD PTR V3$2.4774[rip]
	shr	rdx, 40
	mov	r8, rdx
	mov	rdx, QWORD PTR MF0$2.4789[rip]
	and	rdx, r8
	sal	rdx, 3
	add	rcx, rdx
	mov	rdx, QWORD PTR E2$2.4783[rip]
	shr	rdx, 44
	mov	r8, rdx
	mov	rdx, QWORD PTR MF$2.4787[rip]
	and	rdx, r8
	sal	rdx, 3
	add	rdx, rcx
	add	rax, rdx
	mov	rdx, QWORD PTR [rax]
	mov	rax, QWORD PTR V7$2.4778[rip]
	add	rax, rdx
	mov	QWORD PTR V7$2.4778[rip], rax
	mov	rax, QWORD PTR PPQM$1.4359[rip]
	mov	rdx, QWORD PTR E1$2.4782[rip]
	mov	rcx, rdx
	shr	rcx, 28
	mov	rdx, QWORD PTR MF000$2.4791[rip]
	and	rdx, rcx
	sal	rdx, 3
	mov	r8, rdx
	mov	rdx, QWORD PTR V3$2.4774[rip]
	mov	rcx, rdx
	shr	rcx, 48
	mov	rdx, QWORD PTR MF00$2.4790[rip]
	and	rdx, rcx
	sal	rdx, 3
	lea	rcx, [r8+rdx]
	mov	rdx, QWORD PTR V3$2.4774[rip]
	shr	rdx, 36
	mov	r8, rdx
	mov	rdx, QWORD PTR MF0$2.4789[rip]
	and	rdx, r8
	sal	rdx, 3
	add	rcx, rdx
	mov	rdx, QWORD PTR E2$2.4783[rip]
	shr	rdx, 40
	mov	r8, rdx
	mov	rdx, QWORD PTR MF$2.4787[rip]
	and	rdx, r8
	sal	rdx, 3
	add	rdx, rcx
	add	rax, rdx
	mov	rdx, QWORD PTR [rax]
	mov	rax, QWORD PTR V8$2.4779[rip]
	add	rax, rdx
	mov	QWORD PTR V8$2.4779[rip], rax
	mov	rax, QWORD PTR PPQM$1.4359[rip]
	mov	rdx, QWORD PTR E1$2.4782[rip]
	mov	rcx, rdx
	shr	rcx, 24
	mov	rdx, QWORD PTR MF000$2.4791[rip]
	and	rdx, rcx
	sal	rdx, 3
	mov	r8, rdx
	mov	rdx, QWORD PTR V3$2.4774[rip]
	mov	rcx, rdx
	shr	rcx, 44
	mov	rdx, QWORD PTR MF00$2.4790[rip]
	and	rdx, rcx
	sal	rdx, 3
	lea	rcx, [r8+rdx]
	mov	rdx, QWORD PTR V3$2.4774[rip]
	shr	rdx, 32
	mov	r8, rdx
	mov	rdx, QWORD PTR MF0$2.4789[rip]
	and	rdx, r8
	sal	rdx, 3
	add	rcx, rdx
	mov	rdx, QWORD PTR E2$2.4783[rip]
	shr	rdx, 36
	mov	r8, rdx
	mov	rdx, QWORD PTR MF$2.4787[rip]
	and	rdx, r8
	sal	rdx, 3
	add	rdx, rcx
	add	rax, rdx
	mov	rdx, QWORD PTR [rax]
	mov	rax, QWORD PTR V9$2.4780[rip]
	add	rax, rdx
	mov	QWORD PTR V9$2.4780[rip], rax
	mov	rax, QWORD PTR PPQM$1.4359[rip]
	mov	rdx, QWORD PTR E1$2.4782[rip]
	mov	rcx, rdx
	shr	rcx, 20
	mov	rdx, QWORD PTR MF000$2.4791[rip]
	and	rdx, rcx
	sal	rdx, 3
	mov	r8, rdx
	mov	rdx, QWORD PTR V3$2.4774[rip]
	mov	rcx, rdx
	shr	rcx, 40
	mov	rdx, QWORD PTR MF00$2.4790[rip]
	and	rdx, rcx
	sal	rdx, 3
	lea	rcx, [r8+rdx]
	mov	rdx, QWORD PTR V3$2.4774[rip]
	shr	rdx, 28
	mov	r8, rdx
	mov	rdx, QWORD PTR MF0$2.4789[rip]
	and	rdx, r8
	sal	rdx, 3
	add	rcx, rdx
	mov	rdx, QWORD PTR E2$2.4783[rip]
	shr	rdx, 32
	mov	r8, rdx
	mov	rdx, QWORD PTR MF$2.4787[rip]
	and	rdx, r8
	sal	rdx, 3
	add	rdx, rcx
	add	rax, rdx
	mov	rdx, QWORD PTR [rax]
	mov	rax, QWORD PTR V0$2.4771[rip]
	add	rax, rdx
	mov	QWORD PTR V0$2.4771[rip], rax
	mov	rdx, QWORD PTR V7$2.4778[rip]
	mov	rax, QWORD PTR ME$2.4788[rip]
	and	rax, rdx
	shr	rax
	mov	rcx, rax
	mov	rax, QWORD PTR PPQM$1.4359[rip]
	mov	rdx, QWORD PTR V1$2.4772[rip]
	shr	rdx, 44
	mov	r8, rdx
	mov	rdx, QWORD PTR MFFF0$2.4792[rip]
	and	r8, rdx
	mov	rdx, QWORD PTR V2$2.4773[rip]
	shr	rdx, 56
	mov	r9, rdx
	mov	rdx, QWORD PTR MF$2.4787[rip]
	and	rdx, r9
	add	rdx, r8
	sal	rdx, 3
	add	rax, rdx
	mov	rax, QWORD PTR [rax]
	add	rcx, rax
	mov	rax, QWORD PTR PPQM$1.4359[rip]
	mov	rdx, QWORD PTR V3$2.4774[rip]
	shr	rdx, 44
	mov	r8, rdx
	mov	rdx, QWORD PTR MFFF0$2.4792[rip]
	and	r8, rdx
	mov	rdx, QWORD PTR V2$2.4773[rip]
	shr	rdx, 48
	mov	r9, rdx
	mov	rdx, QWORD PTR MF$2.4787[rip]
	and	rdx, r9
	add	rdx, r8
	sal	rdx, 3
	add	rax, rdx
	mov	rax, QWORD PTR [rax]
	add	rax, rcx
	mov	QWORD PTR V7$2.4778[rip], rax
	mov	rdx, QWORD PTR V8$2.4779[rip]
	mov	rax, QWORD PTR ME$2.4788[rip]
	and	rax, rdx
	shr	rax
	mov	rcx, rax
	mov	rax, QWORD PTR PPQM$1.4359[rip]
	mov	rdx, QWORD PTR V1$2.4772[rip]
	shr	rdx, 40
	mov	r8, rdx
	mov	rdx, QWORD PTR MFFF0$2.4792[rip]
	and	r8, rdx
	mov	rdx, QWORD PTR V2$2.4773[rip]
	shr	rdx, 52
	mov	r9, rdx
	mov	rdx, QWORD PTR MF$2.4787[rip]
	and	rdx, r9
	add	rdx, r8
	sal	rdx, 3
	add	rax, rdx
	mov	rax, QWORD PTR [rax]
	add	rcx, rax
	mov	rax, QWORD PTR PPQM$1.4359[rip]
	mov	rdx, QWORD PTR V3$2.4774[rip]
	shr	rdx, 40
	mov	r8, rdx
	mov	rdx, QWORD PTR MFFF0$2.4792[rip]
	and	r8, rdx
	mov	rdx, QWORD PTR V2$2.4773[rip]
	shr	rdx, 44
	mov	r9, rdx
	mov	rdx, QWORD PTR MF$2.4787[rip]
	and	rdx, r9
	add	rdx, r8
	sal	rdx, 3
	add	rax, rdx
	mov	rax, QWORD PTR [rax]
	add	rax, rcx
	mov	QWORD PTR V8$2.4779[rip], rax
	mov	rdx, QWORD PTR V9$2.4780[rip]
	mov	rax, QWORD PTR ME$2.4788[rip]
	and	rax, rdx
	shr	rax
	mov	rcx, rax
	mov	rax, QWORD PTR PPQM$1.4359[rip]
	mov	rdx, QWORD PTR V1$2.4772[rip]
	shr	rdx, 36
	mov	r8, rdx
	mov	rdx, QWORD PTR MFFF0$2.4792[rip]
	and	r8, rdx
	mov	rdx, QWORD PTR V2$2.4773[rip]
	shr	rdx, 48
	mov	r9, rdx
	mov	rdx, QWORD PTR MF$2.4787[rip]
	and	rdx, r9
	add	rdx, r8
	sal	rdx, 3
	add	rax, rdx
	mov	rax, QWORD PTR [rax]
	add	rcx, rax
	mov	rax, QWORD PTR PPQM$1.4359[rip]
	mov	rdx, QWORD PTR V3$2.4774[rip]
	shr	rdx, 36
	mov	r8, rdx
	mov	rdx, QWORD PTR MFFF0$2.4792[rip]
	and	r8, rdx
	mov	rdx, QWORD PTR V2$2.4773[rip]
	shr	rdx, 40
	mov	r9, rdx
	mov	rdx, QWORD PTR MF$2.4787[rip]
	and	rdx, r9
	add	rdx, r8
	sal	rdx, 3
	add	rax, rdx
	mov	rax, QWORD PTR [rax]
	add	rax, rcx
	mov	QWORD PTR V9$2.4780[rip], rax
	mov	rdx, QWORD PTR V0$2.4771[rip]
	mov	rax, QWORD PTR ME$2.4788[rip]
	and	rax, rdx
	shr	rax
	mov	rcx, rax
	mov	rax, QWORD PTR PPQM$1.4359[rip]
	mov	rdx, QWORD PTR V1$2.4772[rip]
	shr	rdx, 32
	mov	r8, rdx
	mov	rdx, QWORD PTR MFFF0$2.4792[rip]
	and	r8, rdx
	mov	rdx, QWORD PTR V2$2.4773[rip]
	shr	rdx, 44
	mov	r9, rdx
	mov	rdx, QWORD PTR MF$2.4787[rip]
	and	rdx, r9
	add	rdx, r8
	sal	rdx, 3
	add	rax, rdx
	mov	rax, QWORD PTR [rax]
	add	rcx, rax
	mov	rax, QWORD PTR PPQM$1.4359[rip]
	mov	rdx, QWORD PTR V3$2.4774[rip]
	shr	rdx, 32
	mov	r8, rdx
	mov	rdx, QWORD PTR MFFF0$2.4792[rip]
	and	r8, rdx
	mov	rdx, QWORD PTR V2$2.4773[rip]
	shr	rdx, 36
	mov	r9, rdx
	mov	rdx, QWORD PTR MF$2.4787[rip]
	and	rdx, r9
	add	rdx, r8
	sal	rdx, 3
	add	rax, rdx
	mov	rax, QWORD PTR [rax]
	add	rax, rcx
	mov	QWORD PTR V0$2.4771[rip], rax
	mov	rax, QWORD PTR PPTOC$1.4357[rip]
	mov	rdx, QWORD PTR V2$2.4773[rip]
	mov	rcx, rdx
	shr	rcx, 52
	mov	rdx, QWORD PTR MF$2.4787[rip]
	and	rdx, rcx
	sal	rdx, 3
	add	rax, rdx
	mov	rdx, QWORD PTR [rax]
	mov	rax, QWORD PTR V7$2.4778[rip]
	add	rax, rdx
	mov	QWORD PTR V7$2.4778[rip], rax
	mov	rax, QWORD PTR PPTOC$1.4357[rip]
	mov	rdx, QWORD PTR V2$2.4773[rip]
	mov	rcx, rdx
	shr	rcx, 48
	mov	rdx, QWORD PTR MF$2.4787[rip]
	and	rdx, rcx
	sal	rdx, 3
	add	rax, rdx
	mov	rdx, QWORD PTR [rax]
	mov	rax, QWORD PTR V8$2.4779[rip]
	add	rax, rdx
	mov	QWORD PTR V8$2.4779[rip], rax
	mov	rax, QWORD PTR PPTOC$1.4357[rip]
	mov	rdx, QWORD PTR V2$2.4773[rip]
	mov	rcx, rdx
	shr	rcx, 44
	mov	rdx, QWORD PTR MF$2.4787[rip]
	and	rdx, rcx
	sal	rdx, 3
	add	rax, rdx
	mov	rdx, QWORD PTR [rax]
	mov	rax, QWORD PTR V9$2.4780[rip]
	add	rax, rdx
	mov	QWORD PTR V9$2.4780[rip], rax
	mov	rax, QWORD PTR PPTOC$1.4357[rip]
	mov	rdx, QWORD PTR V2$2.4773[rip]
	mov	rcx, rdx
	shr	rcx, 40
	mov	rdx, QWORD PTR MF$2.4787[rip]
	and	rdx, rcx
	sal	rdx, 3
	add	rax, rdx
	mov	rdx, QWORD PTR [rax]
	mov	rax, QWORD PTR V0$2.4771[rip]
	add	rax, rdx
	mov	QWORD PTR V0$2.4771[rip], rax
	mov	rax, QWORD PTR Q1$2.4796[rip]
	add	rax, 4
	mov	QWORD PTR Q1$2.4796[rip], rax
	mov	rax, QWORD PTR UB1$2.4793[rip]
	mov	rax, QWORD PTR [rax]
	mov	QWORD PTR PSEL$2.4767[rip], rax
	mov	rax, QWORD PTR UB1$2.4793[rip]
	add	rax, 8
	mov	QWORD PTR UB1$2.4793[rip], rax
	mov	rax, QWORD PTR PSEL$2.4767[rip]
	mov	rdx, QWORD PTR V7$2.4778[rip]
	mov	rcx, rdx
	shr	rcx, 32
	mov	rdx, QWORD PTR M$2.4786[rip]
	and	rdx, rcx
	add	rdx, rdx
	add	rax, rdx
	movzx	eax, WORD PTR [rax]
	movzx	eax, ax
	sal	rax, 16
	mov	r8d, eax
	mov	rax, QWORD PTR PSEL$2.4767[rip]
	mov	rdx, QWORD PTR V7$2.4778[rip]
	mov	rcx, rdx
	shr	rcx, 16
	mov	rdx, QWORD PTR M$2.4786[rip]
	and	rdx, rcx
	add	rdx, rdx
	add	rax, rdx
	movzx	eax, WORD PTR [rax]
	movzx	eax, ax
	sal	rax, 8
	add	r8d, eax
	mov	rax, QWORD PTR PSEL$2.4767[rip]
	mov	rcx, QWORD PTR V7$2.4778[rip]
	mov	rdx, QWORD PTR M$2.4786[rip]
	and	rdx, rcx
	add	rdx, rdx
	add	rax, rdx
	movzx	eax, WORD PTR [rax]
	movzx	eax, ax
	lea	edx, [r8+rax]
	mov	rax, QWORD PTR Q1$2.4796[rip]
	mov	DWORD PTR [rax], edx
	mov	rax, QWORD PTR Q1$2.4796[rip]
	add	rax, 4
	mov	QWORD PTR Q1$2.4796[rip], rax
	mov	rax, QWORD PTR UB1$2.4793[rip]
	mov	rax, QWORD PTR [rax]
	mov	QWORD PTR PSEL$2.4767[rip], rax
	mov	rax, QWORD PTR UB1$2.4793[rip]
	add	rax, 8
	mov	QWORD PTR UB1$2.4793[rip], rax
	mov	rax, QWORD PTR PSEL$2.4767[rip]
	mov	rdx, QWORD PTR V8$2.4779[rip]
	mov	rcx, rdx
	shr	rcx, 32
	mov	rdx, QWORD PTR M$2.4786[rip]
	and	rdx, rcx
	add	rdx, rdx
	add	rax, rdx
	movzx	eax, WORD PTR [rax]
	movzx	eax, ax
	sal	rax, 16
	mov	r8d, eax
	mov	rax, QWORD PTR PSEL$2.4767[rip]
	mov	rdx, QWORD PTR V8$2.4779[rip]
	mov	rcx, rdx
	shr	rcx, 16
	mov	rdx, QWORD PTR M$2.4786[rip]
	and	rdx, rcx
	add	rdx, rdx
	add	rax, rdx
	movzx	eax, WORD PTR [rax]
	movzx	eax, ax
	sal	rax, 8
	add	r8d, eax
	mov	rax, QWORD PTR PSEL$2.4767[rip]
	mov	rcx, QWORD PTR V8$2.4779[rip]
	mov	rdx, QWORD PTR M$2.4786[rip]
	and	rdx, rcx
	add	rdx, rdx
	add	rax, rdx
	movzx	eax, WORD PTR [rax]
	movzx	eax, ax
	lea	edx, [r8+rax]
	mov	rax, QWORD PTR Q1$2.4796[rip]
	mov	DWORD PTR [rax], edx
	mov	rax, QWORD PTR Q1$2.4796[rip]
	add	rax, 4
	mov	QWORD PTR Q1$2.4796[rip], rax
	mov	rax, QWORD PTR UB1$2.4793[rip]
	mov	rax, QWORD PTR [rax]
	mov	QWORD PTR PSEL$2.4767[rip], rax
	mov	rax, QWORD PTR UB1$2.4793[rip]
	add	rax, 8
	mov	QWORD PTR UB1$2.4793[rip], rax
	mov	rax, QWORD PTR PSEL$2.4767[rip]
	mov	rdx, QWORD PTR V9$2.4780[rip]
	mov	rcx, rdx
	shr	rcx, 32
	mov	rdx, QWORD PTR M$2.4786[rip]
	and	rdx, rcx
	add	rdx, rdx
	add	rax, rdx
	movzx	eax, WORD PTR [rax]
	movzx	eax, ax
	sal	rax, 16
	mov	r8d, eax
	mov	rax, QWORD PTR PSEL$2.4767[rip]
	mov	rdx, QWORD PTR V9$2.4780[rip]
	mov	rcx, rdx
	shr	rcx, 16
	mov	rdx, QWORD PTR M$2.4786[rip]
	and	rdx, rcx
	add	rdx, rdx
	add	rax, rdx
	movzx	eax, WORD PTR [rax]
	movzx	eax, ax
	sal	rax, 8
	add	r8d, eax
	mov	rax, QWORD PTR PSEL$2.4767[rip]
	mov	rcx, QWORD PTR V9$2.4780[rip]
	mov	rdx, QWORD PTR M$2.4786[rip]
	and	rdx, rcx
	add	rdx, rdx
	add	rax, rdx
	movzx	eax, WORD PTR [rax]
	movzx	eax, ax
	lea	edx, [r8+rax]
	mov	rax, QWORD PTR Q1$2.4796[rip]
	mov	DWORD PTR [rax], edx
	mov	rax, QWORD PTR Q1$2.4796[rip]
	add	rax, 4
	mov	QWORD PTR Q1$2.4796[rip], rax
	mov	rax, QWORD PTR UB1$2.4793[rip]
	mov	rax, QWORD PTR [rax]
	mov	QWORD PTR PSEL$2.4767[rip], rax
	mov	rax, QWORD PTR UB1$2.4793[rip]
	add	rax, 8
	mov	QWORD PTR UB1$2.4793[rip], rax
	mov	rax, QWORD PTR PSEL$2.4767[rip]
	mov	rdx, QWORD PTR V0$2.4771[rip]
	mov	rcx, rdx
	shr	rcx, 32
	mov	rdx, QWORD PTR M$2.4786[rip]
	and	rdx, rcx
	add	rdx, rdx
	add	rax, rdx
	movzx	eax, WORD PTR [rax]
	movzx	eax, ax
	sal	rax, 16
	mov	r8d, eax
	mov	rax, QWORD PTR PSEL$2.4767[rip]
	mov	rdx, QWORD PTR V0$2.4771[rip]
	mov	rcx, rdx
	shr	rcx, 16
	mov	rdx, QWORD PTR M$2.4786[rip]
	and	rdx, rcx
	add	rdx, rdx
	add	rax, rdx
	movzx	eax, WORD PTR [rax]
	movzx	eax, ax
	sal	rax, 8
	add	r8d, eax
	mov	rax, QWORD PTR PSEL$2.4767[rip]
	mov	rcx, QWORD PTR V0$2.4771[rip]
	mov	rdx, QWORD PTR M$2.4786[rip]
	and	rdx, rcx
	add	rdx, rdx
	add	rax, rdx
	movzx	eax, WORD PTR [rax]
	movzx	eax, ax
	lea	edx, [r8+rax]
	mov	rax, QWORD PTR Q1$2.4796[rip]
	mov	DWORD PTR [rax], edx
	mov	rax, QWORD PTR E1$2.4782[rip]
	sal	rax, 16
	mov	rdx, rax
	mov	rax, QWORD PTR E3$2.4784[rip]
	shr	rax, 48
	add	rax, rdx
	mov	QWORD PTR E1$2.4782[rip], rax
	mov	rax, QWORD PTR E3$2.4784[rip]
	sal	rax, 16
	mov	QWORD PTR E3$2.4784[rip], rax
	mov	rax, QWORD PTR V1$2.4772[rip]
	sal	rax, 16
	mov	rdx, rax
	mov	rax, QWORD PTR V4$2.4775[rip]
	shr	rax, 48
	add	rax, rdx
	mov	QWORD PTR V1$2.4772[rip], rax
	mov	rax, QWORD PTR V4$2.4775[rip]
	sal	rax, 16
	mov	QWORD PTR V4$2.4775[rip], rax
	mov	rax, QWORD PTR V2$2.4773[rip]
	sal	rax, 16
	mov	rdx, rax
	mov	rax, QWORD PTR V5$2.4776[rip]
	shr	rax, 48
	add	rax, rdx
	mov	QWORD PTR V2$2.4773[rip], rax
	mov	rax, QWORD PTR V5$2.4776[rip]
	sal	rax, 16
	mov	QWORD PTR V5$2.4776[rip], rax
	mov	rax, QWORD PTR V3$2.4774[rip]
	sal	rax, 16
	mov	rdx, rax
	mov	rax, QWORD PTR V6$2.4777[rip]
	shr	rax, 48
	add	rax, rdx
	mov	QWORD PTR V3$2.4774[rip], rax
	mov	rax, QWORD PTR V6$2.4777[rip]
	sal	rax, 16
	mov	QWORD PTR V6$2.4777[rip], rax
	mov	rax, QWORD PTR E2$2.4783[rip]
	sal	rax, 16
	mov	rdx, rax
	mov	rax, QWORD PTR E4$2.4785[rip]
	shr	rax, 48
	add	rax, rdx
	mov	QWORD PTR E2$2.4783[rip], rax
	mov	rax, QWORD PTR E4$2.4785[rip]
	sal	rax, 16
	mov	QWORD PTR E4$2.4785[rip], rax
	mov	eax, DWORD PTR VLX$2.4798[rip]
	sub	eax, 4
	mov	DWORD PTR VLX$2.4798[rip], eax
	mov	eax, DWORD PTR VLX$2.4798[rip]
	test	eax, eax
	jne	.L464
	mov	DWORD PTR VLX$2.4798[rip], 16
	mov	rax, QWORD PTR Q3$2.4795[rip]
	mov	rax, QWORD PTR [rax]
	mov	QWORD PTR E3$2.4784[rip], rax
	mov	rax, QWORD PTR Q3$2.4795[rip]
	mov	rax, QWORD PTR 144[rax]
	mov	QWORD PTR V4$2.4775[rip], rax
	mov	rax, QWORD PTR Q3$2.4795[rip]
	mov	rax, QWORD PTR 288[rax]
	mov	QWORD PTR V5$2.4776[rip], rax
	mov	rax, QWORD PTR Q3$2.4795[rip]
	mov	rax, QWORD PTR 432[rax]
	mov	QWORD PTR V6$2.4777[rip], rax
	mov	rax, QWORD PTR Q3$2.4795[rip]
	mov	rax, QWORD PTR 576[rax]
	mov	QWORD PTR E4$2.4785[rip], rax
	mov	rax, QWORD PTR Q3$2.4795[rip]
	add	rax, 8
	mov	QWORD PTR Q3$2.4795[rip], rax
	jmp	.L345
.L344:
.L464:
	nop
.L345:
	mov	eax, DWORD PTR HOR$2.4800[rip]
	add	eax, 4
	mov	DWORD PTR HOR$2.4800[rip], eax
.L346:
	mov	eax, DWORD PTR HOR$2.4800[rip]
	cmp	eax, 256
	ja	.L465
	jmp	.L342
.L465:
	nop
.L347:
	mov	rax, QWORD PTR Q2$2.4794[rip]
	add	rax, 144
	mov	QWORD PTR Q2$2.4794[rip], rax
	mov	rax, QWORD PTR SB5$2.4769[rip]
	add	rax, 2
	mov	QWORD PTR SB5$2.4769[rip], rax
.L348:
	mov	eax, DWORD PTR RY$2.4805[rip]
	add	eax, 1
	mov	DWORD PTR RY$2.4805[rip], eax
.L349:
	mov	eax, DWORD PTR RY$2.4805[rip]
	cmp	eax, 191
	ja	.L466
	jmp	.L341
.L350:
.L351:
.L352:
.L466:
	nop
.L353:
	call	fb_GfxLock
	mov	rax, QWORD PTR PSS$1.4362[rip]
	add	rax, 32
	mov	QWORD PTR P1$2.4827[rip], rax
	mov	eax, DWORD PTR SCRX$[rip]
	imul	eax, DWORD PTR 32[rbp]
	mov	edx, eax
	mov	eax, DWORD PTR 24[rbp]
	add	eax, edx
	sal	eax, 2
	mov	DWORD PTR OF$2.4820[rip], eax
	call	fb_GfxScreenPtr
	mov	QWORD PTR -120[rbp], rax
	mov	eax, DWORD PTR OF$2.4820[rip]
	mov	edx, eax
	mov	rax, QWORD PTR -120[rbp]
	add	rax, rdx
	mov	QWORD PTR PA$2.4823[rip], rax
	cmp	DWORD PTR 16[rbp], 1
	je	.L467
	nop
.L355:
	cmp	DWORD PTR 16[rbp], 2
	je	.L468
	nop
.L358:
	cmp	DWORD PTR 16[rbp], 3
	je	.L469
	nop
.L361:
	cmp	DWORD PTR 16[rbp], 4
	je	.L470
	jmp	.L365
.L356:
.L467:
	nop
.L365:
	mov	DWORD PTR Y$2.4819[rip], 0
.L366:
	mov	rax, QWORD PTR PA$2.4823[rip]
	mov	QWORD PTR P2$2.4832[rip], rax
	mov	DWORD PTR X$2.4818[rip], 0
.L367:
	mov	rax, QWORD PTR P1$2.4827[rip]
	mov	eax, DWORD PTR [rax]
	mov	edx, eax
	mov	rax, QWORD PTR P1$2.4827[rip]
	add	rax, 4
	mov	eax, DWORD PTR [rax]
	mov	eax, eax
	sal	rax, 32
	or	rax, rdx
	mov	QWORD PTR W1$2.4831[rip], rax
	mov	rax, QWORD PTR P1$2.4827[rip]
	add	rax, 8
	mov	QWORD PTR P1$2.4827[rip], rax
	mov	rax, QWORD PTR P2$2.4832[rip]
	mov	rdx, QWORD PTR W1$2.4831[rip]
	mov	QWORD PTR [rax], rdx
	mov	rax, QWORD PTR P2$2.4832[rip]
	add	rax, 8
	mov	QWORD PTR P2$2.4832[rip], rax
.L368:
	mov	eax, DWORD PTR X$2.4818[rip]
	add	eax, 2
	mov	DWORD PTR X$2.4818[rip], eax
.L369:
	mov	eax, DWORD PTR X$2.4818[rip]
	cmp	eax, 255
	ja	.L471
	jmp	.L367
.L471:
	nop
.L370:
	mov	rax, QWORD PTR PA$2.4823[rip]
	mov	edx, DWORD PTR SCRX$[rip]
	mov	edx, edx
	sal	rdx, 2
	add	rax, rdx
	mov	QWORD PTR PA$2.4823[rip], rax
.L371:
	mov	eax, DWORD PTR Y$2.4819[rip]
	add	eax, 1
	mov	DWORD PTR Y$2.4819[rip], eax
.L372:
	mov	eax, DWORD PTR Y$2.4819[rip]
	cmp	eax, 191
	ja	.L472
	jmp	.L366
.L472:
	nop
.L373:
	jmp	.L398
.L468:
	nop
.L359:
	mov	eax, DWORD PTR SCRX$[rip]
	sal	eax, 3
	mov	DWORD PTR LOF2$2.4821[rip], eax
	mov	rax, QWORD PTR PA$2.4823[rip]
	mov	edx, DWORD PTR SCRX$[rip]
	mov	edx, edx
	sal	rdx, 2
	add	rax, rdx
	mov	QWORD PTR PB$2.4824[rip], rax
	mov	DWORD PTR Y$2.4819[rip], 0
.L375:
	mov	rax, QWORD PTR PA$2.4823[rip]
	mov	QWORD PTR P2$2.4832[rip], rax
	mov	rax, QWORD PTR PB$2.4824[rip]
	mov	QWORD PTR P3$2.4833[rip], rax
	mov	DWORD PTR X$2.4818[rip], 0
.L376:
	mov	rax, QWORD PTR P1$2.4827[rip]
	mov	eax, DWORD PTR [rax]
	mov	edx, eax
	mov	rax, QWORD PTR P1$2.4827[rip]
	mov	eax, DWORD PTR [rax]
	mov	eax, eax
	sal	rax, 32
	or	rax, rdx
	mov	QWORD PTR W1$2.4831[rip], rax
	mov	rax, QWORD PTR P1$2.4827[rip]
	add	rax, 4
	mov	QWORD PTR P1$2.4827[rip], rax
	mov	rax, QWORD PTR P2$2.4832[rip]
	mov	rdx, QWORD PTR W1$2.4831[rip]
	mov	QWORD PTR [rax], rdx
	mov	rax, QWORD PTR P2$2.4832[rip]
	add	rax, 8
	mov	QWORD PTR P2$2.4832[rip], rax
	mov	rax, QWORD PTR P3$2.4833[rip]
	mov	rdx, QWORD PTR W1$2.4831[rip]
	mov	QWORD PTR [rax], rdx
	mov	rax, QWORD PTR P3$2.4833[rip]
	add	rax, 8
	mov	QWORD PTR P3$2.4833[rip], rax
.L377:
	mov	eax, DWORD PTR X$2.4818[rip]
	add	eax, 1
	mov	DWORD PTR X$2.4818[rip], eax
.L378:
	mov	eax, DWORD PTR X$2.4818[rip]
	cmp	eax, 255
	ja	.L473
	jmp	.L376
.L473:
	nop
.L379:
	mov	rax, QWORD PTR PA$2.4823[rip]
	mov	edx, DWORD PTR LOF2$2.4821[rip]
	mov	edx, edx
	add	rax, rdx
	mov	QWORD PTR PA$2.4823[rip], rax
	mov	rax, QWORD PTR PB$2.4824[rip]
	mov	edx, DWORD PTR LOF2$2.4821[rip]
	mov	edx, edx
	add	rax, rdx
	mov	QWORD PTR PB$2.4824[rip], rax
.L380:
	mov	eax, DWORD PTR Y$2.4819[rip]
	add	eax, 1
	mov	DWORD PTR Y$2.4819[rip], eax
.L381:
	mov	eax, DWORD PTR Y$2.4819[rip]
	cmp	eax, 191
	ja	.L474
	jmp	.L375
.L474:
	nop
.L382:
	jmp	.L398
.L469:
	nop
.L362:
	mov	edx, DWORD PTR SCRX$[rip]
	mov	eax, edx
	add	eax, eax
	add	eax, edx
	sal	eax, 2
	mov	DWORD PTR LOF2$2.4821[rip], eax
	mov	rax, QWORD PTR PA$2.4823[rip]
	mov	edx, DWORD PTR SCRX$[rip]
	mov	edx, edx
	sal	rdx, 2
	add	rax, rdx
	mov	QWORD PTR PB$2.4824[rip], rax
	mov	rax, QWORD PTR PB$2.4824[rip]
	mov	edx, DWORD PTR SCRX$[rip]
	mov	edx, edx
	sal	rdx, 2
	add	rax, rdx
	mov	QWORD PTR PC$2.4825[rip], rax
	mov	DWORD PTR Y$2.4819[rip], 0
.L383:
	mov	rax, QWORD PTR PA$2.4823[rip]
	mov	QWORD PTR S1$2.4828[rip], rax
	mov	rax, QWORD PTR PB$2.4824[rip]
	mov	QWORD PTR S2$2.4829[rip], rax
	mov	rax, QWORD PTR PC$2.4825[rip]
	mov	QWORD PTR S3$2.4830[rip], rax
	mov	DWORD PTR X$2.4818[rip], 0
.L384:
	mov	rax, QWORD PTR P1$2.4827[rip]
	mov	eax, DWORD PTR [rax]
	mov	DWORD PTR W2$2.4822[rip], eax
	mov	rax, QWORD PTR P1$2.4827[rip]
	add	rax, 4
	mov	QWORD PTR P1$2.4827[rip], rax
	mov	rax, QWORD PTR S1$2.4828[rip]
	mov	edx, DWORD PTR W2$2.4822[rip]
	mov	DWORD PTR [rax], edx
	mov	rax, QWORD PTR S1$2.4828[rip]
	lea	rdx, 4[rax]
	mov	eax, DWORD PTR W2$2.4822[rip]
	mov	DWORD PTR [rdx], eax
	mov	rax, QWORD PTR S1$2.4828[rip]
	lea	rdx, 8[rax]
	mov	eax, DWORD PTR W2$2.4822[rip]
	mov	DWORD PTR [rdx], eax
	mov	rax, QWORD PTR S2$2.4829[rip]
	mov	edx, DWORD PTR W2$2.4822[rip]
	mov	DWORD PTR [rax], edx
	mov	rax, QWORD PTR S2$2.4829[rip]
	lea	rdx, 4[rax]
	mov	eax, DWORD PTR W2$2.4822[rip]
	mov	DWORD PTR [rdx], eax
	mov	rax, QWORD PTR S2$2.4829[rip]
	lea	rdx, 8[rax]
	mov	eax, DWORD PTR W2$2.4822[rip]
	mov	DWORD PTR [rdx], eax
	mov	rax, QWORD PTR S3$2.4830[rip]
	mov	edx, DWORD PTR W2$2.4822[rip]
	mov	DWORD PTR [rax], edx
	mov	rax, QWORD PTR S3$2.4830[rip]
	lea	rdx, 4[rax]
	mov	eax, DWORD PTR W2$2.4822[rip]
	mov	DWORD PTR [rdx], eax
	mov	rax, QWORD PTR S3$2.4830[rip]
	lea	rdx, 8[rax]
	mov	eax, DWORD PTR W2$2.4822[rip]
	mov	DWORD PTR [rdx], eax
	mov	rax, QWORD PTR S1$2.4828[rip]
	add	rax, 12
	mov	QWORD PTR S1$2.4828[rip], rax
	mov	rax, QWORD PTR S2$2.4829[rip]
	add	rax, 12
	mov	QWORD PTR S2$2.4829[rip], rax
	mov	rax, QWORD PTR S3$2.4830[rip]
	add	rax, 12
	mov	QWORD PTR S3$2.4830[rip], rax
.L385:
	mov	eax, DWORD PTR X$2.4818[rip]
	add	eax, 1
	mov	DWORD PTR X$2.4818[rip], eax
.L386:
	mov	eax, DWORD PTR X$2.4818[rip]
	cmp	eax, 255
	ja	.L475
	jmp	.L384
.L475:
	nop
.L387:
	mov	rax, QWORD PTR PA$2.4823[rip]
	mov	edx, DWORD PTR LOF2$2.4821[rip]
	mov	edx, edx
	add	rax, rdx
	mov	QWORD PTR PA$2.4823[rip], rax
	mov	rax, QWORD PTR PB$2.4824[rip]
	mov	edx, DWORD PTR LOF2$2.4821[rip]
	mov	edx, edx
	add	rax, rdx
	mov	QWORD PTR PB$2.4824[rip], rax
	mov	rax, QWORD PTR PC$2.4825[rip]
	mov	edx, DWORD PTR LOF2$2.4821[rip]
	mov	edx, edx
	add	rax, rdx
	mov	QWORD PTR PC$2.4825[rip], rax
.L388:
	mov	eax, DWORD PTR Y$2.4819[rip]
	add	eax, 1
	mov	DWORD PTR Y$2.4819[rip], eax
.L389:
	mov	eax, DWORD PTR Y$2.4819[rip]
	cmp	eax, 191
	ja	.L476
	jmp	.L383
.L476:
	nop
.L390:
	jmp	.L398
.L470:
	nop
.L364:
	mov	eax, DWORD PTR SCRX$[rip]
	sal	eax, 4
	mov	DWORD PTR LOF2$2.4821[rip], eax
	mov	rax, QWORD PTR PA$2.4823[rip]
	mov	edx, DWORD PTR SCRX$[rip]
	mov	edx, edx
	sal	rdx, 2
	add	rax, rdx
	mov	QWORD PTR PB$2.4824[rip], rax
	mov	rax, QWORD PTR PB$2.4824[rip]
	mov	edx, DWORD PTR SCRX$[rip]
	mov	edx, edx
	sal	rdx, 2
	add	rax, rdx
	mov	QWORD PTR PC$2.4825[rip], rax
	mov	rax, QWORD PTR PC$2.4825[rip]
	mov	edx, DWORD PTR SCRX$[rip]
	mov	edx, edx
	sal	rdx, 2
	add	rax, rdx
	mov	QWORD PTR PD$2.4826[rip], rax
	mov	DWORD PTR Y$2.4819[rip], 0
.L391:
	mov	rax, QWORD PTR PA$2.4823[rip]
	mov	QWORD PTR P2$2.4832[rip], rax
	mov	rax, QWORD PTR PB$2.4824[rip]
	mov	QWORD PTR P3$2.4833[rip], rax
	mov	rax, QWORD PTR PC$2.4825[rip]
	mov	QWORD PTR P4$2.4834[rip], rax
	mov	rax, QWORD PTR PD$2.4826[rip]
	mov	QWORD PTR P5$2.4835[rip], rax
	mov	DWORD PTR X$2.4818[rip], 0
.L392:
	mov	rax, QWORD PTR P1$2.4827[rip]
	mov	eax, DWORD PTR [rax]
	mov	edx, eax
	mov	rax, QWORD PTR P1$2.4827[rip]
	mov	eax, DWORD PTR [rax]
	mov	eax, eax
	sal	rax, 32
	or	rax, rdx
	mov	QWORD PTR W1$2.4831[rip], rax
	mov	rax, QWORD PTR P1$2.4827[rip]
	add	rax, 4
	mov	QWORD PTR P1$2.4827[rip], rax
	mov	rax, QWORD PTR P2$2.4832[rip]
	mov	rdx, QWORD PTR W1$2.4831[rip]
	mov	QWORD PTR [rax], rdx
	mov	rax, QWORD PTR P2$2.4832[rip]
	lea	rdx, 8[rax]
	mov	rax, QWORD PTR W1$2.4831[rip]
	mov	QWORD PTR [rdx], rax
	mov	rax, QWORD PTR P3$2.4833[rip]
	mov	rdx, QWORD PTR W1$2.4831[rip]
	mov	QWORD PTR [rax], rdx
	mov	rax, QWORD PTR P3$2.4833[rip]
	lea	rdx, 8[rax]
	mov	rax, QWORD PTR W1$2.4831[rip]
	mov	QWORD PTR [rdx], rax
	mov	rax, QWORD PTR P4$2.4834[rip]
	mov	rdx, QWORD PTR W1$2.4831[rip]
	mov	QWORD PTR [rax], rdx
	mov	rax, QWORD PTR P4$2.4834[rip]
	lea	rdx, 8[rax]
	mov	rax, QWORD PTR W1$2.4831[rip]
	mov	QWORD PTR [rdx], rax
	mov	rax, QWORD PTR P5$2.4835[rip]
	mov	rdx, QWORD PTR W1$2.4831[rip]
	mov	QWORD PTR [rax], rdx
	mov	rax, QWORD PTR P5$2.4835[rip]
	lea	rdx, 8[rax]
	mov	rax, QWORD PTR W1$2.4831[rip]
	mov	QWORD PTR [rdx], rax
	mov	rax, QWORD PTR P2$2.4832[rip]
	add	rax, 16
	mov	QWORD PTR P2$2.4832[rip], rax
	mov	rax, QWORD PTR P3$2.4833[rip]
	add	rax, 16
	mov	QWORD PTR P3$2.4833[rip], rax
	mov	rax, QWORD PTR P4$2.4834[rip]
	add	rax, 16
	mov	QWORD PTR P4$2.4834[rip], rax
	mov	rax, QWORD PTR P5$2.4835[rip]
	add	rax, 16
	mov	QWORD PTR P5$2.4835[rip], rax
.L393:
	mov	eax, DWORD PTR X$2.4818[rip]
	add	eax, 1
	mov	DWORD PTR X$2.4818[rip], eax
.L394:
	mov	eax, DWORD PTR X$2.4818[rip]
	cmp	eax, 255
	ja	.L477
	jmp	.L392
.L477:
	nop
.L395:
	mov	rax, QWORD PTR PA$2.4823[rip]
	mov	edx, DWORD PTR LOF2$2.4821[rip]
	mov	edx, edx
	add	rax, rdx
	mov	QWORD PTR PA$2.4823[rip], rax
	mov	rax, QWORD PTR PB$2.4824[rip]
	mov	edx, DWORD PTR LOF2$2.4821[rip]
	mov	edx, edx
	add	rax, rdx
	mov	QWORD PTR PB$2.4824[rip], rax
	mov	rax, QWORD PTR PC$2.4825[rip]
	mov	edx, DWORD PTR LOF2$2.4821[rip]
	mov	edx, edx
	add	rax, rdx
	mov	QWORD PTR PC$2.4825[rip], rax
	mov	rax, QWORD PTR PD$2.4826[rip]
	mov	edx, DWORD PTR LOF2$2.4821[rip]
	mov	edx, edx
	add	rax, rdx
	mov	QWORD PTR PD$2.4826[rip], rax
.L396:
	mov	eax, DWORD PTR Y$2.4819[rip]
	add	eax, 1
	mov	DWORD PTR Y$2.4819[rip], eax
.L397:
	mov	eax, DWORD PTR Y$2.4819[rip]
	cmp	eax, 191
	ja	.L478
	jmp	.L391
.L374:
.L478:
	nop
.L398:
	mov	edx, -1
	mov	ecx, -1
	call	fb_GfxUnlock
	nop
	add	rsp, 160
	pop	rbp
	ret
.L399:
.L400:
.L401:
	.seh_endproc
	.globl	SCROLL
	.def	SCROLL;	.scl	2;	.type	32;	.endef
	.seh_proc	SCROLL
SCROLL:
	push	rbp
	.seh_pushreg	rbp
	mov	rbp, rsp
	.seh_setframe	rbp, 0
	sub	rsp, 64
	.seh_stackalloc	64
	.seh_endprologue
	mov	DWORD PTR 16[rbp], ecx
	mov	DWORD PTR 24[rbp], edx
	mov	DWORD PTR 32[rbp], r8d
	mov	DWORD PTR 40[rbp], r9d
.L480:
	mov	eax, DWORD PTR 16[rbp]
	vcvtsi2sd	xmm0, xmm0, rax
	mov	eax, DWORD PTR TWX$[rip]
	mov	eax, eax
	vcvtsi2sd	xmm1, xmm1, rax
	vdivsd	xmm1, xmm0, xmm1
	vmovsd	xmm0, QWORD PTR .LC5[rip]
	vaddsd	xmm0, xmm1, xmm0
	vroundsd	xmm0, xmm0, xmm0, 12
	vcvttsd2si	edx, xmm0
	mov	ecx, DWORD PTR 40[rbp]
	mov	eax, DWORD PTR 24[rbp]
	add	rax, rcx
	vcvtsi2sd	xmm0, xmm0, rax
	mov	eax, DWORD PTR TWY$[rip]
	mov	eax, eax
	vcvtsi2sd	xmm1, xmm1, rax
	vdivsd	xmm1, xmm0, xmm1
	vxorpd	xmm0, xmm0, xmm0
	vaddsd	xmm0, xmm1, xmm0
	vroundsd	xmm0, xmm0, xmm0, 12
	vcvttsd2si	eax, xmm0
	mov	DWORD PTR 32[rsp], 0
	mov	r9d, 0
	mov	r8d, -1
	mov	ecx, eax
	call	fb_Locate
	mov	eax, DWORD PTR SCRX$[rip]
	sal	eax, 2
	mov	DWORD PTR SX$1.4898[rip], eax
	and	DWORD PTR 32[rbp], 65528
	and	DWORD PTR 16[rbp], 65528
	call	fb_GfxScreenPtr
	mov	QWORD PTR -8[rbp], rax
	mov	eax, DWORD PTR 16[rbp]
	sal	rax, 2
	mov	rcx, rax
	mov	eax, DWORD PTR 24[rbp]
	mov	edx, DWORD PTR SX$1.4898[rip]
	mov	edx, edx
	imul	rax, rdx
	lea	rdx, [rcx+rax]
	mov	rax, QWORD PTR -8[rbp]
	add	rax, rdx
	mov	QWORD PTR B1$1.4890[rip], rax
	mov	rax, QWORD PTR B1$1.4890[rip]
	mov	edx, DWORD PTR 48[rbp]
	mov	ecx, DWORD PTR SX$1.4898[rip]
	mov	ecx, ecx
	imul	rdx, rcx
	add	rax, rdx
	mov	QWORD PTR B2$1.4891[rip], rax
	mov	eax, DWORD PTR 40[rbp]
	sub	eax, DWORD PTR 48[rbp]
	mov	DWORD PTR HG$1.4894[rip], eax
	mov	eax, DWORD PTR 48[rbp]
	mov	DWORD PTR ZC$1.4897[rip], eax
	mov	eax, DWORD PTR 56[rbp]
	mov	edx, DWORD PTR 56[rbp]
	sal	rdx, 32
	add	rax, rdx
	mov	QWORD PTR E$1.4899[rip], rax
	call	fb_GfxLock
.L481:
	mov	eax, DWORD PTR 32[rbp]
	shr	eax, 3
	mov	DWORD PTR LX$1.4896[rip], eax
	mov	rax, QWORD PTR B1$1.4890[rip]
	mov	QWORD PTR P1$1.4892[rip], rax
	mov	rax, QWORD PTR B2$1.4891[rip]
	mov	QWORD PTR P2$1.4893[rip], rax
.L482:
	mov	rdx, QWORD PTR P2$1.4893[rip]
	mov	rax, QWORD PTR P1$1.4892[rip]
	mov	rdx, QWORD PTR [rdx]
	mov	QWORD PTR [rax], rdx
	mov	rax, QWORD PTR P1$1.4892[rip]
	add	rax, 8
	mov	QWORD PTR P1$1.4892[rip], rax
	mov	rax, QWORD PTR P2$1.4893[rip]
	add	rax, 8
	mov	QWORD PTR P2$1.4893[rip], rax
	mov	rdx, QWORD PTR P2$1.4893[rip]
	mov	rax, QWORD PTR P1$1.4892[rip]
	mov	rdx, QWORD PTR [rdx]
	mov	QWORD PTR [rax], rdx
	mov	rax, QWORD PTR P1$1.4892[rip]
	add	rax, 8
	mov	QWORD PTR P1$1.4892[rip], rax
	mov	rax, QWORD PTR P2$1.4893[rip]
	add	rax, 8
	mov	QWORD PTR P2$1.4893[rip], rax
	mov	rdx, QWORD PTR P2$1.4893[rip]
	mov	rax, QWORD PTR P1$1.4892[rip]
	mov	rdx, QWORD PTR [rdx]
	mov	QWORD PTR [rax], rdx
	mov	rax, QWORD PTR P1$1.4892[rip]
	add	rax, 8
	mov	QWORD PTR P1$1.4892[rip], rax
	mov	rax, QWORD PTR P2$1.4893[rip]
	add	rax, 8
	mov	QWORD PTR P2$1.4893[rip], rax
	mov	rdx, QWORD PTR P2$1.4893[rip]
	mov	rax, QWORD PTR P1$1.4892[rip]
	mov	rdx, QWORD PTR [rdx]
	mov	QWORD PTR [rax], rdx
	mov	rax, QWORD PTR P1$1.4892[rip]
	add	rax, 8
	mov	QWORD PTR P1$1.4892[rip], rax
	mov	rax, QWORD PTR P2$1.4893[rip]
	add	rax, 8
	mov	QWORD PTR P2$1.4893[rip], rax
	mov	eax, DWORD PTR LX$1.4896[rip]
	sub	eax, 1
	mov	DWORD PTR LX$1.4896[rip], eax
.L483:
	mov	eax, DWORD PTR LX$1.4896[rip]
	test	eax, eax
	je	.L494
	jmp	.L482
.L494:
	nop
.L484:
	mov	rax, QWORD PTR B1$1.4890[rip]
	mov	edx, DWORD PTR SX$1.4898[rip]
	mov	edx, edx
	add	rax, rdx
	mov	QWORD PTR B1$1.4890[rip], rax
	mov	rax, QWORD PTR B2$1.4891[rip]
	mov	edx, DWORD PTR SX$1.4898[rip]
	mov	edx, edx
	add	rax, rdx
	mov	QWORD PTR B2$1.4891[rip], rax
	mov	eax, DWORD PTR HG$1.4894[rip]
	sub	eax, 1
	mov	DWORD PTR HG$1.4894[rip], eax
.L485:
	mov	eax, DWORD PTR HG$1.4894[rip]
	test	eax, eax
	je	.L495
	jmp	.L481
.L495:
	nop
.L486:
	mov	eax, DWORD PTR ZC$1.4897[rip]
	mov	DWORD PTR HG$1.4894[rip], eax
.L487:
	mov	eax, DWORD PTR 32[rbp]
	shr	eax, 3
	mov	DWORD PTR LX$1.4896[rip], eax
	mov	rax, QWORD PTR B1$1.4890[rip]
	mov	QWORD PTR P1$1.4892[rip], rax
.L488:
	mov	rax, QWORD PTR P1$1.4892[rip]
	mov	rdx, QWORD PTR E$1.4899[rip]
	mov	QWORD PTR [rax], rdx
	mov	rax, QWORD PTR P1$1.4892[rip]
	add	rax, 8
	mov	QWORD PTR P1$1.4892[rip], rax
	mov	rax, QWORD PTR P1$1.4892[rip]
	mov	rdx, QWORD PTR E$1.4899[rip]
	mov	QWORD PTR [rax], rdx
	mov	rax, QWORD PTR P1$1.4892[rip]
	add	rax, 8
	mov	QWORD PTR P1$1.4892[rip], rax
	mov	rax, QWORD PTR P1$1.4892[rip]
	mov	rdx, QWORD PTR E$1.4899[rip]
	mov	QWORD PTR [rax], rdx
	mov	rax, QWORD PTR P1$1.4892[rip]
	add	rax, 8
	mov	QWORD PTR P1$1.4892[rip], rax
	mov	rax, QWORD PTR P1$1.4892[rip]
	mov	rdx, QWORD PTR E$1.4899[rip]
	mov	QWORD PTR [rax], rdx
	mov	rax, QWORD PTR P1$1.4892[rip]
	add	rax, 8
	mov	QWORD PTR P1$1.4892[rip], rax
	mov	eax, DWORD PTR LX$1.4896[rip]
	sub	eax, 1
	mov	DWORD PTR LX$1.4896[rip], eax
.L489:
	mov	eax, DWORD PTR LX$1.4896[rip]
	test	eax, eax
	je	.L496
	jmp	.L488
.L496:
	nop
.L490:
	mov	rax, QWORD PTR B1$1.4890[rip]
	mov	edx, DWORD PTR SX$1.4898[rip]
	mov	edx, edx
	add	rax, rdx
	mov	QWORD PTR B1$1.4890[rip], rax
	mov	eax, DWORD PTR HG$1.4894[rip]
	sub	eax, 1
	mov	DWORD PTR HG$1.4894[rip], eax
.L491:
	mov	eax, DWORD PTR HG$1.4894[rip]
	test	eax, eax
	je	.L497
	jmp	.L487
.L497:
	nop
.L492:
	mov	edx, -1
	mov	ecx, -1
	call	fb_GfxUnlock
	nop
	add	rsp, 64
	pop	rbp
	ret
.L493:
	.seh_endproc
	.globl	DEFC
	.def	DEFC;	.scl	2;	.type	32;	.endef
	.seh_proc	DEFC
DEFC:
	push	rbp
	.seh_pushreg	rbp
	mov	rbp, rsp
	.seh_setframe	rbp, 0
	.seh_endprologue
	mov	DWORD PTR 16[rbp], ecx
	mov	DWORD PTR 24[rbp], edx
	mov	DWORD PTR 32[rbp], r8d
.L499:
	mov	rdx, QWORD PTR PMOSC$[rip]
	mov	rax, QWORD PTR PROOT$[rip]
	mov	ecx, DWORD PTR 16[rbp]
	sal	rcx, 3
	mov	r8, rcx
	mov	ecx, DWORD PTR 24[rbp]
	sal	rcx, 3
	add	rcx, r8
	add	rax, rcx
	mov	QWORD PTR [rax], rdx
	mov	rax, QWORD PTR PMOSC$[rip]
	mov	edx, DWORD PTR 32[rbp]
	sal	rdx, 2
	lea	rcx, [rax+rdx]
	mov	rax, QWORD PTR POFFS$[rip]
	mov	edx, DWORD PTR 16[rbp]
	sal	rdx, 3
	mov	r8, rdx
	mov	edx, DWORD PTR 24[rbp]
	sal	rdx, 3
	add	rdx, r8
	add	rax, rdx
	mov	rdx, rcx
	mov	QWORD PTR [rax], rdx
	nop
	pop	rbp
	ret
.L500:
	.seh_endproc
	.globl	DEFMAIN
	.def	DEFMAIN;	.scl	2;	.type	32;	.endef
	.seh_proc	DEFMAIN
DEFMAIN:
	push	rbp
	.seh_pushreg	rbp
	mov	rbp, rsp
	.seh_setframe	rbp, 0
	.seh_endprologue
	mov	QWORD PTR 16[rbp], rcx
.L502:
	mov	rdx, QWORD PTR PMOSC$[rip]
	mov	rax, QWORD PTR PROOT$[rip]
	mov	rcx, QWORD PTR 16[rbp]
	sal	rcx, 3
	add	rax, rcx
	mov	QWORD PTR [rax], rdx
	mov	rax, QWORD PTR PMOSC$[rip]
	mov	edx, DWORD PTR NOPFX$[rip]
	mov	edx, edx
	sal	rdx, 2
	lea	rcx, [rax+rdx]
	mov	rax, QWORD PTR POFFS$[rip]
	mov	rdx, QWORD PTR 16[rbp]
	sal	rdx, 3
	add	rax, rdx
	mov	rdx, rcx
	mov	QWORD PTR [rax], rdx
	mov	rdx, QWORD PTR PMOSC$[rip]
	mov	rax, QWORD PTR PROOT$[rip]
	mov	ecx, DWORD PTR XDD$[rip]
	mov	ecx, ecx
	sal	rcx, 3
	mov	r8, rcx
	mov	rcx, QWORD PTR 16[rbp]
	sal	rcx, 3
	add	rcx, r8
	add	rax, rcx
	mov	QWORD PTR [rax], rdx
	mov	rax, QWORD PTR PMOSC$[rip]
	mov	edx, DWORD PTR NOPFX$[rip]
	mov	edx, edx
	sal	rdx, 2
	lea	rcx, [rax+rdx]
	mov	rax, QWORD PTR POFFS$[rip]
	mov	edx, DWORD PTR XDD$[rip]
	mov	edx, edx
	sal	rdx, 3
	mov	r8, rdx
	mov	rdx, QWORD PTR 16[rbp]
	sal	rdx, 3
	add	rdx, r8
	add	rax, rdx
	mov	rdx, rcx
	mov	QWORD PTR [rax], rdx
	mov	rdx, QWORD PTR PMOSC$[rip]
	mov	rax, QWORD PTR PROOT$[rip]
	mov	ecx, DWORD PTR XFD$[rip]
	mov	ecx, ecx
	sal	rcx, 3
	mov	r8, rcx
	mov	rcx, QWORD PTR 16[rbp]
	sal	rcx, 3
	add	rcx, r8
	add	rax, rcx
	mov	QWORD PTR [rax], rdx
	mov	rax, QWORD PTR PMOSC$[rip]
	mov	edx, DWORD PTR NOPFX$[rip]
	mov	edx, edx
	sal	rdx, 2
	lea	rcx, [rax+rdx]
	mov	rax, QWORD PTR POFFS$[rip]
	mov	edx, DWORD PTR XFD$[rip]
	mov	edx, edx
	sal	rdx, 3
	mov	r8, rdx
	mov	rdx, QWORD PTR 16[rbp]
	sal	rdx, 3
	add	rdx, r8
	add	rax, rdx
	mov	rdx, rcx
	mov	QWORD PTR [rax], rdx
	nop
	pop	rbp
	ret
.L503:
	.seh_endproc
	.globl	DEFDD
	.def	DEFDD;	.scl	2;	.type	32;	.endef
	.seh_proc	DEFDD
DEFDD:
	push	rbp
	.seh_pushreg	rbp
	mov	rbp, rsp
	.seh_setframe	rbp, 0
	.seh_endprologue
	mov	QWORD PTR 16[rbp], rcx
.L505:
	mov	rdx, QWORD PTR PMOSC$[rip]
	mov	rax, QWORD PTR PROOT$[rip]
	mov	ecx, DWORD PTR XDD$[rip]
	mov	ecx, ecx
	sal	rcx, 3
	mov	r8, rcx
	mov	rcx, QWORD PTR 16[rbp]
	sal	rcx, 3
	add	rcx, r8
	add	rax, rcx
	mov	QWORD PTR [rax], rdx
	mov	rax, QWORD PTR PMOSC$[rip]
	mov	edx, DWORD PTR NOPFX$[rip]
	mov	edx, edx
	sal	rdx, 2
	lea	rcx, [rax+rdx]
	mov	rax, QWORD PTR POFFS$[rip]
	mov	edx, DWORD PTR XDD$[rip]
	mov	edx, edx
	sal	rdx, 3
	mov	r8, rdx
	mov	rdx, QWORD PTR 16[rbp]
	sal	rdx, 3
	add	rdx, r8
	add	rax, rdx
	mov	rdx, rcx
	mov	QWORD PTR [rax], rdx
	nop
	pop	rbp
	ret
.L506:
	.seh_endproc
	.globl	DEFFD
	.def	DEFFD;	.scl	2;	.type	32;	.endef
	.seh_proc	DEFFD
DEFFD:
	push	rbp
	.seh_pushreg	rbp
	mov	rbp, rsp
	.seh_setframe	rbp, 0
	.seh_endprologue
	mov	QWORD PTR 16[rbp], rcx
.L508:
	mov	rdx, QWORD PTR PMOSC$[rip]
	mov	rax, QWORD PTR PROOT$[rip]
	mov	ecx, DWORD PTR XFD$[rip]
	mov	ecx, ecx
	sal	rcx, 3
	mov	r8, rcx
	mov	rcx, QWORD PTR 16[rbp]
	sal	rcx, 3
	add	rcx, r8
	add	rax, rcx
	mov	QWORD PTR [rax], rdx
	mov	rax, QWORD PTR PMOSC$[rip]
	mov	edx, DWORD PTR NOPFX$[rip]
	mov	edx, edx
	sal	rdx, 2
	lea	rcx, [rax+rdx]
	mov	rax, QWORD PTR POFFS$[rip]
	mov	edx, DWORD PTR XFD$[rip]
	mov	edx, edx
	sal	rdx, 3
	mov	r8, rdx
	mov	rdx, QWORD PTR 16[rbp]
	sal	rdx, 3
	add	rdx, r8
	add	rax, rdx
	mov	rdx, rcx
	mov	QWORD PTR [rax], rdx
	nop
	pop	rbp
	ret
.L509:
	.seh_endproc
	.globl	DEFCB
	.def	DEFCB;	.scl	2;	.type	32;	.endef
	.seh_proc	DEFCB
DEFCB:
	push	rbp
	.seh_pushreg	rbp
	mov	rbp, rsp
	.seh_setframe	rbp, 0
	.seh_endprologue
	mov	QWORD PTR 16[rbp], rcx
.L511:
	mov	rdx, QWORD PTR PMOSC$[rip]
	mov	rax, QWORD PTR PROOT$[rip]
	mov	ecx, DWORD PTR XCB$[rip]
	mov	ecx, ecx
	sal	rcx, 3
	mov	r8, rcx
	mov	rcx, QWORD PTR 16[rbp]
	sal	rcx, 3
	add	rcx, r8
	add	rax, rcx
	mov	QWORD PTR [rax], rdx
	mov	rax, QWORD PTR PMOSC$[rip]
	mov	edx, DWORD PTR NOPFX$[rip]
	mov	edx, edx
	sal	rdx, 2
	lea	rcx, [rax+rdx]
	mov	rax, QWORD PTR POFFS$[rip]
	mov	edx, DWORD PTR XCB$[rip]
	mov	edx, edx
	sal	rdx, 3
	mov	r8, rdx
	mov	rdx, QWORD PTR 16[rbp]
	sal	rdx, 3
	add	rdx, r8
	add	rax, rdx
	mov	rdx, rcx
	mov	QWORD PTR [rax], rdx
	nop
	pop	rbp
	ret
.L512:
	.seh_endproc
	.globl	DEFCBZ
	.def	DEFCBZ;	.scl	2;	.type	32;	.endef
	.seh_proc	DEFCBZ
DEFCBZ:
	push	rbp
	.seh_pushreg	rbp
	mov	rbp, rsp
	.seh_setframe	rbp, 0
	.seh_endprologue
	mov	QWORD PTR 16[rbp], rcx
.L514:
	mov	rdx, QWORD PTR PMOSC$[rip]
	mov	rax, QWORD PTR PROOT$[rip]
	mov	ecx, DWORD PTR XCB$[rip]
	mov	ecx, ecx
	sal	rcx, 3
	mov	r8, rcx
	mov	rcx, QWORD PTR 16[rbp]
	sal	rcx, 3
	add	rcx, r8
	add	rax, rcx
	mov	QWORD PTR [rax], rdx
	mov	rax, QWORD PTR PMOSC$[rip]
	mov	edx, DWORD PTR NOPFX$[rip]
	mov	edx, edx
	sal	rdx, 2
	lea	rcx, [rax+rdx]
	mov	rax, QWORD PTR POFFS$[rip]
	mov	edx, DWORD PTR XCB$[rip]
	mov	edx, edx
	sal	rdx, 3
	mov	r8, rdx
	mov	rdx, QWORD PTR 16[rbp]
	sal	rdx, 3
	add	rdx, r8
	add	rax, rdx
	mov	rdx, rcx
	mov	QWORD PTR [rax], rdx
	nop
	pop	rbp
	ret
.L515:
	.seh_endproc
	.globl	DEFED
	.def	DEFED;	.scl	2;	.type	32;	.endef
	.seh_proc	DEFED
DEFED:
	push	rbp
	.seh_pushreg	rbp
	mov	rbp, rsp
	.seh_setframe	rbp, 0
	.seh_endprologue
	mov	QWORD PTR 16[rbp], rcx
.L517:
	mov	rdx, QWORD PTR PMOSC$[rip]
	mov	rax, QWORD PTR PROOT$[rip]
	mov	ecx, DWORD PTR XED$[rip]
	mov	ecx, ecx
	sal	rcx, 3
	mov	r8, rcx
	mov	rcx, QWORD PTR 16[rbp]
	sal	rcx, 3
	add	rcx, r8
	add	rax, rcx
	mov	QWORD PTR [rax], rdx
	mov	rax, QWORD PTR PMOSC$[rip]
	mov	edx, DWORD PTR NOPFX$[rip]
	mov	edx, edx
	sal	rdx, 2
	lea	rcx, [rax+rdx]
	mov	rax, QWORD PTR POFFS$[rip]
	mov	edx, DWORD PTR XED$[rip]
	mov	edx, edx
	sal	rdx, 3
	mov	r8, rdx
	mov	rdx, QWORD PTR 16[rbp]
	sal	rdx, 3
	add	rdx, r8
	add	rax, rdx
	mov	rdx, rcx
	mov	QWORD PTR [rax], rdx
	nop
	pop	rbp
	ret
.L518:
	.seh_endproc
	.globl	DEFDDCB
	.def	DEFDDCB;	.scl	2;	.type	32;	.endef
	.seh_proc	DEFDDCB
DEFDDCB:
	push	rbp
	.seh_pushreg	rbp
	mov	rbp, rsp
	.seh_setframe	rbp, 0
	.seh_endprologue
	mov	QWORD PTR 16[rbp], rcx
.L520:
	mov	rdx, QWORD PTR PMOSC$[rip]
	mov	rax, QWORD PTR PROOT$[rip]
	mov	ecx, DWORD PTR XDDCB$[rip]
	mov	ecx, ecx
	sal	rcx, 3
	mov	r8, rcx
	mov	rcx, QWORD PTR 16[rbp]
	sal	rcx, 3
	add	rcx, r8
	add	rax, rcx
	mov	QWORD PTR [rax], rdx
	mov	rax, QWORD PTR PMOSC$[rip]
	mov	edx, DWORD PTR XXDCB$[rip]
	mov	edx, edx
	sal	rdx, 2
	lea	rcx, [rax+rdx]
	mov	rax, QWORD PTR POFFS$[rip]
	mov	edx, DWORD PTR XDDCB$[rip]
	mov	edx, edx
	sal	rdx, 3
	mov	r8, rdx
	mov	rdx, QWORD PTR 16[rbp]
	sal	rdx, 3
	add	rdx, r8
	add	rax, rdx
	mov	rdx, rcx
	mov	QWORD PTR [rax], rdx
	nop
	pop	rbp
	ret
.L521:
	.seh_endproc
	.globl	DEFFDCB
	.def	DEFFDCB;	.scl	2;	.type	32;	.endef
	.seh_proc	DEFFDCB
DEFFDCB:
	push	rbp
	.seh_pushreg	rbp
	mov	rbp, rsp
	.seh_setframe	rbp, 0
	.seh_endprologue
	mov	QWORD PTR 16[rbp], rcx
.L523:
	mov	rdx, QWORD PTR PMOSC$[rip]
	mov	rax, QWORD PTR PROOT$[rip]
	mov	ecx, DWORD PTR XFDCB$[rip]
	mov	ecx, ecx
	sal	rcx, 3
	mov	r8, rcx
	mov	rcx, QWORD PTR 16[rbp]
	sal	rcx, 3
	add	rcx, r8
	add	rax, rcx
	mov	QWORD PTR [rax], rdx
	mov	rax, QWORD PTR PMOSC$[rip]
	mov	edx, DWORD PTR XXDCB$[rip]
	mov	edx, edx
	sal	rdx, 2
	lea	rcx, [rax+rdx]
	mov	rax, QWORD PTR POFFS$[rip]
	mov	edx, DWORD PTR XFDCB$[rip]
	mov	edx, edx
	sal	rdx, 3
	mov	r8, rdx
	mov	rdx, QWORD PTR 16[rbp]
	sal	rdx, 3
	add	rdx, r8
	add	rax, rdx
	mov	rdx, rcx
	mov	QWORD PTR [rax], rdx
	nop
	pop	rbp
	ret
.L524:
	.seh_endproc
	.globl	UBXORQ
	.def	UBXORQ;	.scl	2;	.type	32;	.endef
	.seh_proc	UBXORQ
UBXORQ:
	push	rbp
	.seh_pushreg	rbp
	mov	rbp, rsp
	.seh_setframe	rbp, 0
	.seh_endprologue
.L526:
	mov	rax, QWORD PTR PMOSC$[rip]
	mov	edx, DWORD PTR IUBXORQ$[rip]
	mov	DWORD PTR [rax], edx
	mov	rax, QWORD PTR PMOSC$[rip]
	add	rax, 4
	mov	QWORD PTR PMOSC$[rip], rax
	nop
	pop	rbp
	ret
.L527:
	.seh_endproc
	.globl	UTADDQ
	.def	UTADDQ;	.scl	2;	.type	32;	.endef
	.seh_proc	UTADDQ
UTADDQ:
	push	rbp
	.seh_pushreg	rbp
	mov	rbp, rsp
	.seh_setframe	rbp, 0
	.seh_endprologue
.L529:
	mov	rax, QWORD PTR PMOSC$[rip]
	mov	edx, DWORD PTR IUTADDQ$[rip]
	mov	DWORD PTR [rax], edx
	mov	rax, QWORD PTR PMOSC$[rip]
	add	rax, 4
	mov	QWORD PTR PMOSC$[rip], rax
	nop
	pop	rbp
	ret
.L530:
	.seh_endproc
	.globl	UWBITQ
	.def	UWBITQ;	.scl	2;	.type	32;	.endef
	.seh_proc	UWBITQ
UWBITQ:
	push	rbp
	.seh_pushreg	rbp
	mov	rbp, rsp
	.seh_setframe	rbp, 0
	.seh_endprologue
.L532:
	mov	rax, QWORD PTR PMOSC$[rip]
	mov	edx, DWORD PTR IUWBITQ$[rip]
	mov	DWORD PTR [rax], edx
	mov	rax, QWORD PTR PMOSC$[rip]
	add	rax, 4
	mov	QWORD PTR PMOSC$[rip], rax
	nop
	pop	rbp
	ret
.L533:
	.seh_endproc
	.globl	ULWQLD
	.def	ULWQLD;	.scl	2;	.type	32;	.endef
	.seh_proc	ULWQLD
ULWQLD:
	push	rbp
	.seh_pushreg	rbp
	mov	rbp, rsp
	.seh_setframe	rbp, 0
	.seh_endprologue
.L535:
	mov	rax, QWORD PTR PMOSC$[rip]
	mov	edx, DWORD PTR IULWQLD$[rip]
	mov	DWORD PTR [rax], edx
	mov	rax, QWORD PTR PMOSC$[rip]
	add	rax, 4
	mov	QWORD PTR PMOSC$[rip], rax
	nop
	pop	rbp
	ret
.L536:
	.seh_endproc
	.globl	UOQIO
	.def	UOQIO;	.scl	2;	.type	32;	.endef
	.seh_proc	UOQIO
UOQIO:
	push	rbp
	.seh_pushreg	rbp
	mov	rbp, rsp
	.seh_setframe	rbp, 0
	.seh_endprologue
.L538:
	mov	rax, QWORD PTR PMOSC$[rip]
	mov	edx, DWORD PTR IUOQIO$[rip]
	mov	DWORD PTR [rax], edx
	mov	rax, QWORD PTR PMOSC$[rip]
	add	rax, 4
	mov	QWORD PTR PMOSC$[rip], rax
	nop
	pop	rbp
	ret
.L539:
	.seh_endproc
	.globl	UOFRXD
	.def	UOFRXD;	.scl	2;	.type	32;	.endef
	.seh_proc	UOFRXD
UOFRXD:
	push	rbp
	.seh_pushreg	rbp
	mov	rbp, rsp
	.seh_setframe	rbp, 0
	.seh_endprologue
.L541:
	mov	rax, QWORD PTR PMOSC$[rip]
	mov	edx, DWORD PTR IUOFRXD$[rip]
	mov	DWORD PTR [rax], edx
	mov	rax, QWORD PTR PMOSC$[rip]
	add	rax, 4
	mov	QWORD PTR PMOSC$[rip], rax
	nop
	pop	rbp
	ret
.L542:
	.seh_endproc
	.globl	UFHLZ
	.def	UFHLZ;	.scl	2;	.type	32;	.endef
	.seh_proc	UFHLZ
UFHLZ:
	push	rbp
	.seh_pushreg	rbp
	mov	rbp, rsp
	.seh_setframe	rbp, 0
	.seh_endprologue
.L544:
	mov	rax, QWORD PTR PMOSC$[rip]
	mov	edx, DWORD PTR IUFHLZ$[rip]
	mov	DWORD PTR [rax], edx
	mov	rax, QWORD PTR PMOSC$[rip]
	add	rax, 4
	mov	QWORD PTR PMOSC$[rip], rax
	nop
	pop	rbp
	ret
.L545:
	.seh_endproc
	.globl	ULTCPX
	.def	ULTCPX;	.scl	2;	.type	32;	.endef
	.seh_proc	ULTCPX
ULTCPX:
	push	rbp
	.seh_pushreg	rbp
	mov	rbp, rsp
	.seh_setframe	rbp, 0
	.seh_endprologue
.L547:
	mov	rax, QWORD PTR PMOSC$[rip]
	mov	edx, DWORD PTR IULTCPX$[rip]
	mov	DWORD PTR [rax], edx
	mov	rax, QWORD PTR PMOSC$[rip]
	add	rax, 4
	mov	QWORD PTR PMOSC$[rip], rax
	nop
	pop	rbp
	ret
.L548:
	.seh_endproc
	.globl	ULTCPQ
	.def	ULTCPQ;	.scl	2;	.type	32;	.endef
	.seh_proc	ULTCPQ
ULTCPQ:
	push	rbp
	.seh_pushreg	rbp
	mov	rbp, rsp
	.seh_setframe	rbp, 0
	.seh_endprologue
.L550:
	mov	rax, QWORD PTR PMOSC$[rip]
	mov	edx, DWORD PTR IULTCPQ$[rip]
	mov	DWORD PTR [rax], edx
	mov	rax, QWORD PTR PMOSC$[rip]
	add	rax, 4
	mov	QWORD PTR PMOSC$[rip], rax
	nop
	pop	rbp
	ret
.L551:
	.seh_endproc
	.globl	ULAQLD
	.def	ULAQLD;	.scl	2;	.type	32;	.endef
	.seh_proc	ULAQLD
ULAQLD:
	push	rbp
	.seh_pushreg	rbp
	mov	rbp, rsp
	.seh_setframe	rbp, 0
	.seh_endprologue
.L553:
	mov	rax, QWORD PTR PMOSC$[rip]
	mov	edx, DWORD PTR IULAQLD$[rip]
	mov	DWORD PTR [rax], edx
	mov	rax, QWORD PTR PMOSC$[rip]
	add	rax, 4
	mov	QWORD PTR PMOSC$[rip], rax
	nop
	pop	rbp
	ret
.L554:
	.seh_endproc
	.globl	UFQADD
	.def	UFQADD;	.scl	2;	.type	32;	.endef
	.seh_proc	UFQADD
UFQADD:
	push	rbp
	.seh_pushreg	rbp
	mov	rbp, rsp
	.seh_setframe	rbp, 0
	.seh_endprologue
.L556:
	mov	rax, QWORD PTR PMOSC$[rip]
	mov	edx, DWORD PTR IUFQADD$[rip]
	mov	DWORD PTR [rax], edx
	mov	rax, QWORD PTR PMOSC$[rip]
	add	rax, 4
	mov	QWORD PTR PMOSC$[rip], rax
	nop
	pop	rbp
	ret
.L557:
	.seh_endproc
	.globl	UFQID
	.def	UFQID;	.scl	2;	.type	32;	.endef
	.seh_proc	UFQID
UFQID:
	push	rbp
	.seh_pushreg	rbp
	mov	rbp, rsp
	.seh_setframe	rbp, 0
	.seh_endprologue
.L559:
	mov	rax, QWORD PTR PMOSC$[rip]
	mov	edx, DWORD PTR IUFQID$[rip]
	mov	DWORD PTR [rax], edx
	mov	rax, QWORD PTR PMOSC$[rip]
	add	rax, 4
	mov	QWORD PTR PMOSC$[rip], rax
	nop
	pop	rbp
	ret
.L560:
	.seh_endproc
	.globl	UFQSH
	.def	UFQSH;	.scl	2;	.type	32;	.endef
	.seh_proc	UFQSH
UFQSH:
	push	rbp
	.seh_pushreg	rbp
	mov	rbp, rsp
	.seh_setframe	rbp, 0
	.seh_endprologue
.L562:
	mov	rax, QWORD PTR PMOSC$[rip]
	mov	edx, DWORD PTR IUFQSH$[rip]
	mov	DWORD PTR [rax], edx
	mov	rax, QWORD PTR PMOSC$[rip]
	add	rax, 4
	mov	QWORD PTR PMOSC$[rip], rax
	nop
	pop	rbp
	ret
.L563:
	.seh_endproc
	.globl	UFQIR
	.def	UFQIR;	.scl	2;	.type	32;	.endef
	.seh_proc	UFQIR
UFQIR:
	push	rbp
	.seh_pushreg	rbp
	mov	rbp, rsp
	.seh_setframe	rbp, 0
	.seh_endprologue
.L565:
	mov	rax, QWORD PTR PMOSC$[rip]
	mov	edx, DWORD PTR IUFQIR$[rip]
	mov	DWORD PTR [rax], edx
	mov	rax, QWORD PTR PMOSC$[rip]
	add	rax, 4
	mov	QWORD PTR PMOSC$[rip], rax
	nop
	pop	rbp
	ret
.L566:
	.seh_endproc
	.globl	UBCDPV
	.def	UBCDPV;	.scl	2;	.type	32;	.endef
	.seh_proc	UBCDPV
UBCDPV:
	push	rbp
	.seh_pushreg	rbp
	mov	rbp, rsp
	.seh_setframe	rbp, 0
	.seh_endprologue
.L568:
	mov	rax, QWORD PTR PMOSC$[rip]
	mov	edx, DWORD PTR IUBCDPV$[rip]
	mov	DWORD PTR [rax], edx
	mov	rax, QWORD PTR PMOSC$[rip]
	add	rax, 4
	mov	QWORD PTR PMOSC$[rip], rax
	nop
	pop	rbp
	ret
.L569:
	.seh_endproc
	.globl	ULTSADD
	.def	ULTSADD;	.scl	2;	.type	32;	.endef
	.seh_proc	ULTSADD
ULTSADD:
	push	rbp
	.seh_pushreg	rbp
	mov	rbp, rsp
	.seh_setframe	rbp, 0
	.seh_endprologue
.L571:
	mov	rax, QWORD PTR PMOSC$[rip]
	mov	edx, DWORD PTR IULTSADD$[rip]
	mov	DWORD PTR [rax], edx
	mov	rax, QWORD PTR PMOSC$[rip]
	add	rax, 4
	mov	QWORD PTR PMOSC$[rip], rax
	nop
	pop	rbp
	ret
.L572:
	.seh_endproc
	.globl	UOSADDC
	.def	UOSADDC;	.scl	2;	.type	32;	.endef
	.seh_proc	UOSADDC
UOSADDC:
	push	rbp
	.seh_pushreg	rbp
	mov	rbp, rsp
	.seh_setframe	rbp, 0
	.seh_endprologue
.L574:
	mov	rax, QWORD PTR PMOSC$[rip]
	mov	edx, DWORD PTR IUOSADDC$[rip]
	mov	DWORD PTR [rax], edx
	mov	rax, QWORD PTR PMOSC$[rip]
	add	rax, 4
	mov	QWORD PTR PMOSC$[rip], rax
	nop
	pop	rbp
	ret
.L575:
	.seh_endproc
	.globl	ULANLL
	.def	ULANLL;	.scl	2;	.type	32;	.endef
	.seh_proc	ULANLL
ULANLL:
	push	rbp
	.seh_pushreg	rbp
	mov	rbp, rsp
	.seh_setframe	rbp, 0
	.seh_endprologue
.L577:
	mov	rax, QWORD PTR PMOSC$[rip]
	mov	edx, DWORD PTR IULANLL$[rip]
	mov	DWORD PTR [rax], edx
	mov	rax, QWORD PTR PMOSC$[rip]
	add	rax, 4
	mov	QWORD PTR PMOSC$[rip], rax
	nop
	pop	rbp
	ret
.L578:
	.seh_endproc
	.globl	ULTNLL
	.def	ULTNLL;	.scl	2;	.type	32;	.endef
	.seh_proc	ULTNLL
ULTNLL:
	push	rbp
	.seh_pushreg	rbp
	mov	rbp, rsp
	.seh_setframe	rbp, 0
	.seh_endprologue
.L580:
	mov	rax, QWORD PTR PMOSC$[rip]
	mov	edx, DWORD PTR IULTNLL$[rip]
	mov	DWORD PTR [rax], edx
	mov	rax, QWORD PTR PMOSC$[rip]
	add	rax, 4
	mov	QWORD PTR PMOSC$[rip], rax
	nop
	pop	rbp
	ret
.L581:
	.seh_endproc
	.globl	ULANLH
	.def	ULANLH;	.scl	2;	.type	32;	.endef
	.seh_proc	ULANLH
ULANLH:
	push	rbp
	.seh_pushreg	rbp
	mov	rbp, rsp
	.seh_setframe	rbp, 0
	.seh_endprologue
.L583:
	mov	rax, QWORD PTR PMOSC$[rip]
	mov	edx, DWORD PTR IULANLH$[rip]
	mov	DWORD PTR [rax], edx
	mov	rax, QWORD PTR PMOSC$[rip]
	add	rax, 4
	mov	QWORD PTR PMOSC$[rip], rax
	nop
	pop	rbp
	ret
.L584:
	.seh_endproc
	.globl	ULTNHL
	.def	ULTNHL;	.scl	2;	.type	32;	.endef
	.seh_proc	ULTNHL
ULTNHL:
	push	rbp
	.seh_pushreg	rbp
	mov	rbp, rsp
	.seh_setframe	rbp, 0
	.seh_endprologue
.L586:
	mov	rax, QWORD PTR PMOSC$[rip]
	mov	edx, DWORD PTR IULTNHL$[rip]
	mov	DWORD PTR [rax], edx
	mov	rax, QWORD PTR PMOSC$[rip]
	add	rax, 4
	mov	QWORD PTR PMOSC$[rip], rax
	nop
	pop	rbp
	ret
.L587:
	.seh_endproc
	.globl	UORVN
	.def	UORVN;	.scl	2;	.type	32;	.endef
	.seh_proc	UORVN
UORVN:
	push	rbp
	.seh_pushreg	rbp
	mov	rbp, rsp
	.seh_setframe	rbp, 0
	.seh_endprologue
.L589:
	mov	rax, QWORD PTR PMOSC$[rip]
	mov	edx, DWORD PTR IUORVN$[rip]
	mov	DWORD PTR [rax], edx
	mov	rax, QWORD PTR PMOSC$[rip]
	add	rax, 4
	mov	QWORD PTR PMOSC$[rip], rax
	nop
	pop	rbp
	ret
.L590:
	.seh_endproc
	.globl	UAPCI
	.def	UAPCI;	.scl	2;	.type	32;	.endef
	.seh_proc	UAPCI
UAPCI:
	push	rbp
	.seh_pushreg	rbp
	mov	rbp, rsp
	.seh_setframe	rbp, 0
	.seh_endprologue
.L592:
	mov	rax, QWORD PTR PMOSC$[rip]
	mov	edx, DWORD PTR IUAPCI$[rip]
	mov	DWORD PTR [rax], edx
	mov	rax, QWORD PTR PMOSC$[rip]
	add	rax, 4
	mov	QWORD PTR PMOSC$[rip], rax
	nop
	pop	rbp
	ret
.L593:
	.seh_endproc
	.globl	UNOP
	.def	UNOP;	.scl	2;	.type	32;	.endef
	.seh_proc	UNOP
UNOP:
	push	rbp
	.seh_pushreg	rbp
	mov	rbp, rsp
	.seh_setframe	rbp, 0
	.seh_endprologue
.L595:
	mov	rax, QWORD PTR PMOSC$[rip]
	mov	edx, DWORD PTR IUNOP$[rip]
	mov	DWORD PTR [rax], edx
	mov	rax, QWORD PTR PMOSC$[rip]
	add	rax, 4
	mov	QWORD PTR PMOSC$[rip], rax
	nop
	pop	rbp
	ret
.L596:
	.seh_endproc
	.globl	UFET
	.def	UFET;	.scl	2;	.type	32;	.endef
	.seh_proc	UFET
UFET:
	push	rbp
	.seh_pushreg	rbp
	mov	rbp, rsp
	.seh_setframe	rbp, 0
	.seh_endprologue
.L598:
	mov	rax, QWORD PTR PMOSC$[rip]
	mov	edx, DWORD PTR IUFET$[rip]
	mov	DWORD PTR [rax], edx
	mov	rax, QWORD PTR PMOSC$[rip]
	add	rax, 4
	mov	QWORD PTR PMOSC$[rip], rax
	nop
	pop	rbp
	ret
.L599:
	.seh_endproc
	.globl	UAIRIUF
	.def	UAIRIUF;	.scl	2;	.type	32;	.endef
	.seh_proc	UAIRIUF
UAIRIUF:
	push	rbp
	.seh_pushreg	rbp
	mov	rbp, rsp
	.seh_setframe	rbp, 0
	.seh_endprologue
.L601:
	mov	rax, QWORD PTR PMOSC$[rip]
	mov	edx, DWORD PTR IUAIRIUF$[rip]
	mov	DWORD PTR [rax], edx
	mov	rax, QWORD PTR PMOSC$[rip]
	add	rax, 4
	mov	QWORD PTR PMOSC$[rip], rax
	nop
	pop	rbp
	ret
.L602:
	.seh_endproc
	.globl	URALF
	.def	URALF;	.scl	2;	.type	32;	.endef
	.seh_proc	URALF
URALF:
	push	rbp
	.seh_pushreg	rbp
	mov	rbp, rsp
	.seh_setframe	rbp, 0
	.seh_endprologue
.L604:
	mov	rax, QWORD PTR PMOSC$[rip]
	mov	edx, DWORD PTR IURALF$[rip]
	mov	DWORD PTR [rax], edx
	mov	rax, QWORD PTR PMOSC$[rip]
	add	rax, 4
	mov	QWORD PTR PMOSC$[rip], rax
	nop
	pop	rbp
	ret
.L605:
	.seh_endproc
	.globl	UALF
	.def	UALF;	.scl	2;	.type	32;	.endef
	.seh_proc	UALF
UALF:
	push	rbp
	.seh_pushreg	rbp
	mov	rbp, rsp
	.seh_setframe	rbp, 0
	.seh_endprologue
.L607:
	mov	rax, QWORD PTR PMOSC$[rip]
	mov	edx, DWORD PTR IUALF$[rip]
	mov	DWORD PTR [rax], edx
	mov	rax, QWORD PTR PMOSC$[rip]
	add	rax, 4
	mov	QWORD PTR PMOSC$[rip], rax
	nop
	pop	rbp
	ret
.L608:
	.seh_endproc
	.globl	UHALT
	.def	UHALT;	.scl	2;	.type	32;	.endef
	.seh_proc	UHALT
UHALT:
	push	rbp
	.seh_pushreg	rbp
	mov	rbp, rsp
	.seh_setframe	rbp, 0
	.seh_endprologue
.L610:
	mov	rax, QWORD PTR PMOSC$[rip]
	mov	edx, DWORD PTR IUHALT$[rip]
	mov	DWORD PTR [rax], edx
	mov	rax, QWORD PTR PMOSC$[rip]
	add	rax, 4
	mov	QWORD PTR PMOSC$[rip], rax
	nop
	pop	rbp
	ret
.L611:
	.seh_endproc
	.globl	ULWE
	.def	ULWE;	.scl	2;	.type	32;	.endef
	.seh_proc	ULWE
ULWE:
	push	rbp
	.seh_pushreg	rbp
	mov	rbp, rsp
	.seh_setframe	rbp, 0
	.seh_endprologue
.L613:
	mov	rax, QWORD PTR PMOSC$[rip]
	mov	edx, DWORD PTR IULWE$[rip]
	mov	DWORD PTR [rax], edx
	mov	rax, QWORD PTR PMOSC$[rip]
	add	rax, 4
	mov	QWORD PTR PMOSC$[rip], rax
	nop
	pop	rbp
	ret
.L614:
	.seh_endproc
	.globl	ULWA
	.def	ULWA;	.scl	2;	.type	32;	.endef
	.seh_proc	ULWA
ULWA:
	push	rbp
	.seh_pushreg	rbp
	mov	rbp, rsp
	.seh_setframe	rbp, 0
	.seh_endprologue
.L616:
	mov	rax, QWORD PTR PMOSC$[rip]
	mov	edx, DWORD PTR IULWA$[rip]
	mov	DWORD PTR [rax], edx
	mov	rax, QWORD PTR PMOSC$[rip]
	add	rax, 4
	mov	QWORD PTR PMOSC$[rip], rax
	nop
	pop	rbp
	ret
.L617:
	.seh_endproc
	.globl	ULWT
	.def	ULWT;	.scl	2;	.type	32;	.endef
	.seh_proc	ULWT
ULWT:
	push	rbp
	.seh_pushreg	rbp
	mov	rbp, rsp
	.seh_setframe	rbp, 0
	.seh_endprologue
.L619:
	mov	rax, QWORD PTR PMOSC$[rip]
	mov	edx, DWORD PTR IULWT$[rip]
	mov	DWORD PTR [rax], edx
	mov	rax, QWORD PTR PMOSC$[rip]
	add	rax, 4
	mov	QWORD PTR PMOSC$[rip], rax
	nop
	pop	rbp
	ret
.L620:
	.seh_endproc
	.globl	ULZT
	.def	ULZT;	.scl	2;	.type	32;	.endef
	.seh_proc	ULZT
ULZT:
	push	rbp
	.seh_pushreg	rbp
	mov	rbp, rsp
	.seh_setframe	rbp, 0
	.seh_endprologue
.L622:
	mov	rax, QWORD PTR PMOSC$[rip]
	mov	edx, DWORD PTR IULZT$[rip]
	mov	DWORD PTR [rax], edx
	mov	rax, QWORD PTR PMOSC$[rip]
	add	rax, 4
	mov	QWORD PTR PMOSC$[rip], rax
	nop
	pop	rbp
	ret
.L623:
	.seh_endproc
	.globl	ULZN
	.def	ULZN;	.scl	2;	.type	32;	.endef
	.seh_proc	ULZN
ULZN:
	push	rbp
	.seh_pushreg	rbp
	mov	rbp, rsp
	.seh_setframe	rbp, 0
	.seh_endprologue
	mov	DWORD PTR 16[rbp], ecx
.L625:
	mov	ecx, DWORD PTR IULZ00$[rip]
	mov	rax, QWORD PTR PMOSC$[rip]
	mov	edx, DWORD PTR 16[rbp]
	add	edx, ecx
	mov	DWORD PTR [rax], edx
	mov	rax, QWORD PTR PMOSC$[rip]
	add	rax, 4
	mov	QWORD PTR PMOSC$[rip], rax
	nop
	pop	rbp
	ret
.L626:
	.seh_endproc
	.globl	ULW0
	.def	ULW0;	.scl	2;	.type	32;	.endef
	.seh_proc	ULW0
ULW0:
	push	rbp
	.seh_pushreg	rbp
	mov	rbp, rsp
	.seh_setframe	rbp, 0
	.seh_endprologue
.L628:
	mov	rax, QWORD PTR PMOSC$[rip]
	mov	edx, DWORD PTR IULW0$[rip]
	mov	DWORD PTR [rax], edx
	mov	rax, QWORD PTR PMOSC$[rip]
	add	rax, 4
	mov	QWORD PTR PMOSC$[rip], rax
	nop
	pop	rbp
	ret
.L629:
	.seh_endproc
	.globl	UIFF
	.def	UIFF;	.scl	2;	.type	32;	.endef
	.seh_proc	UIFF
UIFF:
	push	rbp
	.seh_pushreg	rbp
	mov	rbp, rsp
	.seh_setframe	rbp, 0
	.seh_endprologue
.L631:
	mov	rax, QWORD PTR PMOSC$[rip]
	mov	edx, DWORD PTR IUIFF$[rip]
	mov	DWORD PTR [rax], edx
	mov	rax, QWORD PTR PMOSC$[rip]
	add	rax, 4
	mov	QWORD PTR PMOSC$[rip], rax
	nop
	pop	rbp
	ret
.L632:
	.seh_endproc
	.globl	UIMRQ
	.def	UIMRQ;	.scl	2;	.type	32;	.endef
	.seh_proc	UIMRQ
UIMRQ:
	push	rbp
	.seh_pushreg	rbp
	mov	rbp, rsp
	.seh_setframe	rbp, 0
	.seh_endprologue
.L634:
	mov	rax, QWORD PTR PMOSC$[rip]
	mov	edx, DWORD PTR IUIMRQ$[rip]
	mov	DWORD PTR [rax], edx
	mov	rax, QWORD PTR PMOSC$[rip]
	add	rax, 4
	mov	QWORD PTR PMOSC$[rip], rax
	nop
	pop	rbp
	ret
.L635:
	.seh_endproc
	.globl	UIMFET
	.def	UIMFET;	.scl	2;	.type	32;	.endef
	.seh_proc	UIMFET
UIMFET:
	push	rbp
	.seh_pushreg	rbp
	mov	rbp, rsp
	.seh_setframe	rbp, 0
	.seh_endprologue
.L637:
	mov	rax, QWORD PTR PMOSC$[rip]
	mov	edx, DWORD PTR IUIMFET$[rip]
	mov	DWORD PTR [rax], edx
	mov	rax, QWORD PTR PMOSC$[rip]
	add	rax, 4
	mov	QWORD PTR PMOSC$[rip], rax
	nop
	pop	rbp
	ret
.L638:
	.seh_endproc
	.globl	ULWI
	.def	ULWI;	.scl	2;	.type	32;	.endef
	.seh_proc	ULWI
ULWI:
	push	rbp
	.seh_pushreg	rbp
	mov	rbp, rsp
	.seh_setframe	rbp, 0
	.seh_endprologue
.L640:
	mov	rax, QWORD PTR PMOSC$[rip]
	mov	edx, DWORD PTR IULWI$[rip]
	mov	DWORD PTR [rax], edx
	mov	rax, QWORD PTR PMOSC$[rip]
	add	rax, 4
	mov	QWORD PTR PMOSC$[rip], rax
	nop
	pop	rbp
	ret
.L641:
	.seh_endproc
	.globl	ULLRI
	.def	ULLRI;	.scl	2;	.type	32;	.endef
	.seh_proc	ULLRI
ULLRI:
	push	rbp
	.seh_pushreg	rbp
	mov	rbp, rsp
	.seh_setframe	rbp, 0
	.seh_endprologue
.L643:
	mov	rax, QWORD PTR PMOSC$[rip]
	mov	edx, DWORD PTR IULLRI$[rip]
	mov	DWORD PTR [rax], edx
	mov	rax, QWORD PTR PMOSC$[rip]
	add	rax, 4
	mov	QWORD PTR PMOSC$[rip], rax
	nop
	pop	rbp
	ret
.L644:
	.seh_endproc
	.globl	ULLRR
	.def	ULLRR;	.scl	2;	.type	32;	.endef
	.seh_proc	ULLRR
ULLRR:
	push	rbp
	.seh_pushreg	rbp
	mov	rbp, rsp
	.seh_setframe	rbp, 0
	.seh_endprologue
.L646:
	mov	rax, QWORD PTR PMOSC$[rip]
	mov	edx, DWORD PTR IULLRR$[rip]
	mov	DWORD PTR [rax], edx
	mov	rax, QWORD PTR PMOSC$[rip]
	add	rax, 4
	mov	QWORD PTR PMOSC$[rip], rax
	nop
	pop	rbp
	ret
.L647:
	.seh_endproc
	.globl	ULRIA
	.def	ULRIA;	.scl	2;	.type	32;	.endef
	.seh_proc	ULRIA
ULRIA:
	push	rbp
	.seh_pushreg	rbp
	mov	rbp, rsp
	.seh_setframe	rbp, 0
	.seh_endprologue
.L649:
	mov	rax, QWORD PTR PMOSC$[rip]
	mov	edx, DWORD PTR IULRIA$[rip]
	mov	DWORD PTR [rax], edx
	mov	rax, QWORD PTR PMOSC$[rip]
	add	rax, 4
	mov	QWORD PTR PMOSC$[rip], rax
	nop
	pop	rbp
	ret
.L650:
	.seh_endproc
	.globl	ULRRA
	.def	ULRRA;	.scl	2;	.type	32;	.endef
	.seh_proc	ULRRA
ULRRA:
	push	rbp
	.seh_pushreg	rbp
	mov	rbp, rsp
	.seh_setframe	rbp, 0
	.seh_endprologue
.L652:
	mov	rax, QWORD PTR PMOSC$[rip]
	mov	edx, DWORD PTR IULRRA$[rip]
	mov	DWORD PTR [rax], edx
	mov	rax, QWORD PTR PMOSC$[rip]
	add	rax, 4
	mov	QWORD PTR PMOSC$[rip], rax
	nop
	pop	rbp
	ret
.L653:
	.seh_endproc
	.globl	ULTR
	.def	ULTR;	.scl	2;	.type	32;	.endef
	.seh_proc	ULTR
ULTR:
	push	rbp
	.seh_pushreg	rbp
	mov	rbp, rsp
	.seh_setframe	rbp, 0
	.seh_endprologue
	mov	DWORD PTR 16[rbp], ecx
.L655:
	mov	eax, DWORD PTR IULTB$[rip]
	mov	edx, eax
	mov	eax, DWORD PTR 16[rbp]
	sub	edx, eax
	mov	eax, edx
	lea	edx, 7[rax]
	mov	rax, QWORD PTR PMOSC$[rip]
	mov	DWORD PTR [rax], edx
	mov	rax, QWORD PTR PMOSC$[rip]
	add	rax, 4
	mov	QWORD PTR PMOSC$[rip], rax
	nop
	pop	rbp
	ret
.L656:
	.seh_endproc
	.globl	ULTXH
	.def	ULTXH;	.scl	2;	.type	32;	.endef
	.seh_proc	ULTXH
ULTXH:
	push	rbp
	.seh_pushreg	rbp
	mov	rbp, rsp
	.seh_setframe	rbp, 0
	.seh_endprologue
.L658:
	mov	rax, QWORD PTR PMOSC$[rip]
	mov	edx, DWORD PTR IULTXH$[rip]
	mov	DWORD PTR [rax], edx
	mov	rax, QWORD PTR PMOSC$[rip]
	add	rax, 4
	mov	QWORD PTR PMOSC$[rip], rax
	nop
	pop	rbp
	ret
.L659:
	.seh_endproc
	.globl	ULTXL
	.def	ULTXL;	.scl	2;	.type	32;	.endef
	.seh_proc	ULTXL
ULTXL:
	push	rbp
	.seh_pushreg	rbp
	mov	rbp, rsp
	.seh_setframe	rbp, 0
	.seh_endprologue
.L661:
	mov	rax, QWORD PTR PMOSC$[rip]
	mov	edx, DWORD PTR IULTXL$[rip]
	mov	DWORD PTR [rax], edx
	mov	rax, QWORD PTR PMOSC$[rip]
	add	rax, 4
	mov	QWORD PTR PMOSC$[rip], rax
	nop
	pop	rbp
	ret
.L662:
	.seh_endproc
	.globl	ULTYH
	.def	ULTYH;	.scl	2;	.type	32;	.endef
	.seh_proc	ULTYH
ULTYH:
	push	rbp
	.seh_pushreg	rbp
	mov	rbp, rsp
	.seh_setframe	rbp, 0
	.seh_endprologue
.L664:
	mov	rax, QWORD PTR PMOSC$[rip]
	mov	edx, DWORD PTR IULTYH$[rip]
	mov	DWORD PTR [rax], edx
	mov	rax, QWORD PTR PMOSC$[rip]
	add	rax, 4
	mov	QWORD PTR PMOSC$[rip], rax
	nop
	pop	rbp
	ret
.L665:
	.seh_endproc
	.globl	ULTYL
	.def	ULTYL;	.scl	2;	.type	32;	.endef
	.seh_proc	ULTYL
ULTYL:
	push	rbp
	.seh_pushreg	rbp
	mov	rbp, rsp
	.seh_setframe	rbp, 0
	.seh_endprologue
.L667:
	mov	rax, QWORD PTR PMOSC$[rip]
	mov	edx, DWORD PTR IULTYL$[rip]
	mov	DWORD PTR [rax], edx
	mov	rax, QWORD PTR PMOSC$[rip]
	add	rax, 4
	mov	QWORD PTR PMOSC$[rip], rax
	nop
	pop	rbp
	ret
.L668:
	.seh_endproc
	.globl	ULRT
	.def	ULRT;	.scl	2;	.type	32;	.endef
	.seh_proc	ULRT
ULRT:
	push	rbp
	.seh_pushreg	rbp
	mov	rbp, rsp
	.seh_setframe	rbp, 0
	.seh_endprologue
	mov	DWORD PTR 16[rbp], ecx
.L670:
	mov	eax, DWORD PTR IULBT$[rip]
	mov	edx, eax
	mov	eax, DWORD PTR 16[rbp]
	sub	edx, eax
	mov	eax, edx
	lea	edx, 7[rax]
	mov	rax, QWORD PTR PMOSC$[rip]
	mov	DWORD PTR [rax], edx
	mov	rax, QWORD PTR PMOSC$[rip]
	add	rax, 4
	mov	QWORD PTR PMOSC$[rip], rax
	nop
	pop	rbp
	ret
.L671:
	.seh_endproc
	.globl	ULRBT
	.def	ULRBT;	.scl	2;	.type	32;	.endef
	.seh_proc	ULRBT
ULRBT:
	push	rbp
	.seh_pushreg	rbp
	mov	rbp, rsp
	.seh_setframe	rbp, 0
	.seh_endprologue
.L673:
	mov	rax, QWORD PTR PMOSC$[rip]
	mov	edx, DWORD PTR IULRBT$[rip]
	mov	DWORD PTR [rax], edx
	mov	rax, QWORD PTR PMOSC$[rip]
	add	rax, 4
	mov	QWORD PTR PMOSC$[rip], rax
	nop
	pop	rbp
	ret
.L674:
	.seh_endproc
	.globl	ULRCT
	.def	ULRCT;	.scl	2;	.type	32;	.endef
	.seh_proc	ULRCT
ULRCT:
	push	rbp
	.seh_pushreg	rbp
	mov	rbp, rsp
	.seh_setframe	rbp, 0
	.seh_endprologue
.L676:
	mov	rax, QWORD PTR PMOSC$[rip]
	mov	edx, DWORD PTR IULRCT$[rip]
	mov	DWORD PTR [rax], edx
	mov	rax, QWORD PTR PMOSC$[rip]
	add	rax, 4
	mov	QWORD PTR PMOSC$[rip], rax
	nop
	pop	rbp
	ret
.L677:
	.seh_endproc
	.globl	ULRDT
	.def	ULRDT;	.scl	2;	.type	32;	.endef
	.seh_proc	ULRDT
ULRDT:
	push	rbp
	.seh_pushreg	rbp
	mov	rbp, rsp
	.seh_setframe	rbp, 0
	.seh_endprologue
.L679:
	mov	rax, QWORD PTR PMOSC$[rip]
	mov	edx, DWORD PTR IULRDT$[rip]
	mov	DWORD PTR [rax], edx
	mov	rax, QWORD PTR PMOSC$[rip]
	add	rax, 4
	mov	QWORD PTR PMOSC$[rip], rax
	nop
	pop	rbp
	ret
.L680:
	.seh_endproc
	.globl	ULRET
	.def	ULRET;	.scl	2;	.type	32;	.endef
	.seh_proc	ULRET
ULRET:
	push	rbp
	.seh_pushreg	rbp
	mov	rbp, rsp
	.seh_setframe	rbp, 0
	.seh_endprologue
.L682:
	mov	rax, QWORD PTR PMOSC$[rip]
	mov	edx, DWORD PTR IULRET$[rip]
	mov	DWORD PTR [rax], edx
	mov	rax, QWORD PTR PMOSC$[rip]
	add	rax, 4
	mov	QWORD PTR PMOSC$[rip], rax
	nop
	pop	rbp
	ret
.L683:
	.seh_endproc
	.globl	ULRHT
	.def	ULRHT;	.scl	2;	.type	32;	.endef
	.seh_proc	ULRHT
ULRHT:
	push	rbp
	.seh_pushreg	rbp
	mov	rbp, rsp
	.seh_setframe	rbp, 0
	.seh_endprologue
.L685:
	mov	rax, QWORD PTR PMOSC$[rip]
	mov	edx, DWORD PTR IULRHT$[rip]
	mov	DWORD PTR [rax], edx
	mov	rax, QWORD PTR PMOSC$[rip]
	add	rax, 4
	mov	QWORD PTR PMOSC$[rip], rax
	nop
	pop	rbp
	ret
.L686:
	.seh_endproc
	.globl	ULRLT
	.def	ULRLT;	.scl	2;	.type	32;	.endef
	.seh_proc	ULRLT
ULRLT:
	push	rbp
	.seh_pushreg	rbp
	mov	rbp, rsp
	.seh_setframe	rbp, 0
	.seh_endprologue
.L688:
	mov	rax, QWORD PTR PMOSC$[rip]
	mov	edx, DWORD PTR IULRLT$[rip]
	mov	DWORD PTR [rax], edx
	mov	rax, QWORD PTR PMOSC$[rip]
	add	rax, 4
	mov	QWORD PTR PMOSC$[rip], rax
	nop
	pop	rbp
	ret
.L689:
	.seh_endproc
	.globl	ULRAT
	.def	ULRAT;	.scl	2;	.type	32;	.endef
	.seh_proc	ULRAT
ULRAT:
	push	rbp
	.seh_pushreg	rbp
	mov	rbp, rsp
	.seh_setframe	rbp, 0
	.seh_endprologue
.L691:
	mov	rax, QWORD PTR PMOSC$[rip]
	mov	edx, DWORD PTR IULRAT$[rip]
	mov	DWORD PTR [rax], edx
	mov	rax, QWORD PTR PMOSC$[rip]
	add	rax, 4
	mov	QWORD PTR PMOSC$[rip], rax
	nop
	pop	rbp
	ret
.L692:
	.seh_endproc
	.globl	ULRFT
	.def	ULRFT;	.scl	2;	.type	32;	.endef
	.seh_proc	ULRFT
ULRFT:
	push	rbp
	.seh_pushreg	rbp
	mov	rbp, rsp
	.seh_setframe	rbp, 0
	.seh_endprologue
.L694:
	mov	rax, QWORD PTR PMOSC$[rip]
	mov	edx, DWORD PTR IULRFT$[rip]
	mov	DWORD PTR [rax], edx
	mov	rax, QWORD PTR PMOSC$[rip]
	add	rax, 4
	mov	QWORD PTR PMOSC$[rip], rax
	nop
	pop	rbp
	ret
.L695:
	.seh_endproc
	.globl	ULSLT
	.def	ULSLT;	.scl	2;	.type	32;	.endef
	.seh_proc	ULSLT
ULSLT:
	push	rbp
	.seh_pushreg	rbp
	mov	rbp, rsp
	.seh_setframe	rbp, 0
	.seh_endprologue
.L697:
	mov	rax, QWORD PTR PMOSC$[rip]
	mov	edx, DWORD PTR IULSLT$[rip]
	mov	DWORD PTR [rax], edx
	mov	rax, QWORD PTR PMOSC$[rip]
	add	rax, 4
	mov	QWORD PTR PMOSC$[rip], rax
	nop
	pop	rbp
	ret
.L698:
	.seh_endproc
	.globl	ULSHT
	.def	ULSHT;	.scl	2;	.type	32;	.endef
	.seh_proc	ULSHT
ULSHT:
	push	rbp
	.seh_pushreg	rbp
	mov	rbp, rsp
	.seh_setframe	rbp, 0
	.seh_endprologue
.L700:
	mov	rax, QWORD PTR PMOSC$[rip]
	mov	edx, DWORD PTR IULSHT$[rip]
	mov	DWORD PTR [rax], edx
	mov	rax, QWORD PTR PMOSC$[rip]
	add	rax, 4
	mov	QWORD PTR PMOSC$[rip], rax
	nop
	pop	rbp
	ret
.L701:
	.seh_endproc
	.globl	ULXLT
	.def	ULXLT;	.scl	2;	.type	32;	.endef
	.seh_proc	ULXLT
ULXLT:
	push	rbp
	.seh_pushreg	rbp
	mov	rbp, rsp
	.seh_setframe	rbp, 0
	.seh_endprologue
.L703:
	mov	rax, QWORD PTR PMOSC$[rip]
	mov	edx, DWORD PTR IULXLT$[rip]
	mov	DWORD PTR [rax], edx
	mov	rax, QWORD PTR PMOSC$[rip]
	add	rax, 4
	mov	QWORD PTR PMOSC$[rip], rax
	nop
	pop	rbp
	ret
.L704:
	.seh_endproc
	.globl	ULXHT
	.def	ULXHT;	.scl	2;	.type	32;	.endef
	.seh_proc	ULXHT
ULXHT:
	push	rbp
	.seh_pushreg	rbp
	mov	rbp, rsp
	.seh_setframe	rbp, 0
	.seh_endprologue
.L706:
	mov	rax, QWORD PTR PMOSC$[rip]
	mov	edx, DWORD PTR IULXHT$[rip]
	mov	DWORD PTR [rax], edx
	mov	rax, QWORD PTR PMOSC$[rip]
	add	rax, 4
	mov	QWORD PTR PMOSC$[rip], rax
	nop
	pop	rbp
	ret
.L707:
	.seh_endproc
	.globl	ULYLT
	.def	ULYLT;	.scl	2;	.type	32;	.endef
	.seh_proc	ULYLT
ULYLT:
	push	rbp
	.seh_pushreg	rbp
	mov	rbp, rsp
	.seh_setframe	rbp, 0
	.seh_endprologue
.L709:
	mov	rax, QWORD PTR PMOSC$[rip]
	mov	edx, DWORD PTR IULYLT$[rip]
	mov	DWORD PTR [rax], edx
	mov	rax, QWORD PTR PMOSC$[rip]
	add	rax, 4
	mov	QWORD PTR PMOSC$[rip], rax
	nop
	pop	rbp
	ret
.L710:
	.seh_endproc
	.globl	ULYHT
	.def	ULYHT;	.scl	2;	.type	32;	.endef
	.seh_proc	ULYHT
ULYHT:
	push	rbp
	.seh_pushreg	rbp
	mov	rbp, rsp
	.seh_setframe	rbp, 0
	.seh_endprologue
.L712:
	mov	rax, QWORD PTR PMOSC$[rip]
	mov	edx, DWORD PTR IULYHT$[rip]
	mov	DWORD PTR [rax], edx
	mov	rax, QWORD PTR PMOSC$[rip]
	add	rax, 4
	mov	QWORD PTR PMOSC$[rip], rax
	nop
	pop	rbp
	ret
.L713:
	.seh_endproc
	.globl	UADIWZ
	.def	UADIWZ;	.scl	2;	.type	32;	.endef
	.seh_proc	UADIWZ
UADIWZ:
	push	rbp
	.seh_pushreg	rbp
	mov	rbp, rsp
	.seh_setframe	rbp, 0
	.seh_endprologue
.L715:
	mov	rax, QWORD PTR PMOSC$[rip]
	mov	edx, DWORD PTR IUADIWZ$[rip]
	mov	DWORD PTR [rax], edx
	mov	rax, QWORD PTR PMOSC$[rip]
	add	rax, 4
	mov	QWORD PTR PMOSC$[rip], rax
	nop
	pop	rbp
	ret
.L716:
	.seh_endproc
	.globl	UADDWZ
	.def	UADDWZ;	.scl	2;	.type	32;	.endef
	.seh_proc	UADDWZ
UADDWZ:
	push	rbp
	.seh_pushreg	rbp
	mov	rbp, rsp
	.seh_setframe	rbp, 0
	.seh_endprologue
.L718:
	mov	rax, QWORD PTR PMOSC$[rip]
	mov	edx, DWORD PTR IUADDWZ$[rip]
	mov	DWORD PTR [rax], edx
	mov	rax, QWORD PTR PMOSC$[rip]
	add	rax, 4
	mov	QWORD PTR PMOSC$[rip], rax
	nop
	pop	rbp
	ret
.L719:
	.seh_endproc
	.globl	UWZI
	.def	UWZI;	.scl	2;	.type	32;	.endef
	.seh_proc	UWZI
UWZI:
	push	rbp
	.seh_pushreg	rbp
	mov	rbp, rsp
	.seh_setframe	rbp, 0
	.seh_endprologue
.L721:
	mov	rax, QWORD PTR PMOSC$[rip]
	mov	edx, DWORD PTR IUWZI$[rip]
	mov	DWORD PTR [rax], edx
	mov	rax, QWORD PTR PMOSC$[rip]
	add	rax, 4
	mov	QWORD PTR PMOSC$[rip], rax
	nop
	pop	rbp
	ret
.L722:
	.seh_endproc
	.globl	UBCI
	.def	UBCI;	.scl	2;	.type	32;	.endef
	.seh_proc	UBCI
UBCI:
	push	rbp
	.seh_pushreg	rbp
	mov	rbp, rsp
	.seh_setframe	rbp, 0
	.seh_endprologue
.L724:
	mov	rax, QWORD PTR PMOSC$[rip]
	mov	edx, DWORD PTR IUBCI$[rip]
	mov	DWORD PTR [rax], edx
	mov	rax, QWORD PTR PMOSC$[rip]
	add	rax, 4
	mov	QWORD PTR PMOSC$[rip], rax
	nop
	pop	rbp
	ret
.L725:
	.seh_endproc
	.globl	UDEI
	.def	UDEI;	.scl	2;	.type	32;	.endef
	.seh_proc	UDEI
UDEI:
	push	rbp
	.seh_pushreg	rbp
	mov	rbp, rsp
	.seh_setframe	rbp, 0
	.seh_endprologue
.L727:
	mov	rax, QWORD PTR PMOSC$[rip]
	mov	edx, DWORD PTR IUDEI$[rip]
	mov	DWORD PTR [rax], edx
	mov	rax, QWORD PTR PMOSC$[rip]
	add	rax, 4
	mov	QWORD PTR PMOSC$[rip], rax
	nop
	pop	rbp
	ret
.L728:
	.seh_endproc
	.globl	UHLI
	.def	UHLI;	.scl	2;	.type	32;	.endef
	.seh_proc	UHLI
UHLI:
	push	rbp
	.seh_pushreg	rbp
	mov	rbp, rsp
	.seh_setframe	rbp, 0
	.seh_endprologue
.L730:
	mov	rax, QWORD PTR PMOSC$[rip]
	mov	edx, DWORD PTR IUHLI$[rip]
	mov	DWORD PTR [rax], edx
	mov	rax, QWORD PTR PMOSC$[rip]
	add	rax, 4
	mov	QWORD PTR PMOSC$[rip], rax
	nop
	pop	rbp
	ret
.L731:
	.seh_endproc
	.globl	USPI
	.def	USPI;	.scl	2;	.type	32;	.endef
	.seh_proc	USPI
USPI:
	push	rbp
	.seh_pushreg	rbp
	mov	rbp, rsp
	.seh_setframe	rbp, 0
	.seh_endprologue
.L733:
	mov	rax, QWORD PTR PMOSC$[rip]
	mov	edx, DWORD PTR IUSPI$[rip]
	mov	DWORD PTR [rax], edx
	mov	rax, QWORD PTR PMOSC$[rip]
	add	rax, 4
	mov	QWORD PTR PMOSC$[rip], rax
	nop
	pop	rbp
	ret
.L734:
	.seh_endproc
	.globl	UADINC
	.def	UADINC;	.scl	2;	.type	32;	.endef
	.seh_proc	UADINC
UADINC:
	push	rbp
	.seh_pushreg	rbp
	mov	rbp, rsp
	.seh_setframe	rbp, 0
	.seh_endprologue
.L736:
	mov	rax, QWORD PTR PMOSC$[rip]
	mov	edx, DWORD PTR IUADI$[rip]
	mov	DWORD PTR [rax], edx
	mov	rax, QWORD PTR PMOSC$[rip]
	add	rax, 4
	mov	QWORD PTR PMOSC$[rip], rax
	nop
	pop	rbp
	ret
.L737:
	.seh_endproc
	.globl	UIXI
	.def	UIXI;	.scl	2;	.type	32;	.endef
	.seh_proc	UIXI
UIXI:
	push	rbp
	.seh_pushreg	rbp
	mov	rbp, rsp
	.seh_setframe	rbp, 0
	.seh_endprologue
.L739:
	mov	rax, QWORD PTR PMOSC$[rip]
	mov	edx, DWORD PTR IUIXI$[rip]
	mov	DWORD PTR [rax], edx
	mov	rax, QWORD PTR PMOSC$[rip]
	add	rax, 4
	mov	QWORD PTR PMOSC$[rip], rax
	nop
	pop	rbp
	ret
.L740:
	.seh_endproc
	.globl	UIYI
	.def	UIYI;	.scl	2;	.type	32;	.endef
	.seh_proc	UIYI
UIYI:
	push	rbp
	.seh_pushreg	rbp
	mov	rbp, rsp
	.seh_setframe	rbp, 0
	.seh_endprologue
.L742:
	mov	rax, QWORD PTR PMOSC$[rip]
	mov	edx, DWORD PTR IUIYI$[rip]
	mov	DWORD PTR [rax], edx
	mov	rax, QWORD PTR PMOSC$[rip]
	add	rax, 4
	mov	QWORD PTR PMOSC$[rip], rax
	nop
	pop	rbp
	ret
.L743:
	.seh_endproc
	.globl	UWZDL
	.def	UWZDL;	.scl	2;	.type	32;	.endef
	.seh_proc	UWZDL
UWZDL:
	push	rbp
	.seh_pushreg	rbp
	mov	rbp, rsp
	.seh_setframe	rbp, 0
	.seh_endprologue
.L745:
	mov	rax, QWORD PTR PMOSC$[rip]
	mov	edx, DWORD PTR IUWZD$[rip]
	mov	DWORD PTR [rax], edx
	mov	rax, QWORD PTR PMOSC$[rip]
	add	rax, 4
	mov	QWORD PTR PMOSC$[rip], rax
	nop
	pop	rbp
	ret
.L746:
	.seh_endproc
	.globl	UBCD
	.def	UBCD;	.scl	2;	.type	32;	.endef
	.seh_proc	UBCD
UBCD:
	push	rbp
	.seh_pushreg	rbp
	mov	rbp, rsp
	.seh_setframe	rbp, 0
	.seh_endprologue
.L748:
	mov	rax, QWORD PTR PMOSC$[rip]
	mov	edx, DWORD PTR IUBCD$[rip]
	mov	DWORD PTR [rax], edx
	mov	rax, QWORD PTR PMOSC$[rip]
	add	rax, 4
	mov	QWORD PTR PMOSC$[rip], rax
	nop
	pop	rbp
	ret
.L749:
	.seh_endproc
	.globl	UDED
	.def	UDED;	.scl	2;	.type	32;	.endef
	.seh_proc	UDED
UDED:
	push	rbp
	.seh_pushreg	rbp
	mov	rbp, rsp
	.seh_setframe	rbp, 0
	.seh_endprologue
.L751:
	mov	rax, QWORD PTR PMOSC$[rip]
	mov	edx, DWORD PTR IUDED$[rip]
	mov	DWORD PTR [rax], edx
	mov	rax, QWORD PTR PMOSC$[rip]
	add	rax, 4
	mov	QWORD PTR PMOSC$[rip], rax
	nop
	pop	rbp
	ret
.L752:
	.seh_endproc
	.globl	UHLD
	.def	UHLD;	.scl	2;	.type	32;	.endef
	.seh_proc	UHLD
UHLD:
	push	rbp
	.seh_pushreg	rbp
	mov	rbp, rsp
	.seh_setframe	rbp, 0
	.seh_endprologue
.L754:
	mov	rax, QWORD PTR PMOSC$[rip]
	mov	edx, DWORD PTR IUHLD$[rip]
	mov	DWORD PTR [rax], edx
	mov	rax, QWORD PTR PMOSC$[rip]
	add	rax, 4
	mov	QWORD PTR PMOSC$[rip], rax
	nop
	pop	rbp
	ret
.L755:
	.seh_endproc
	.globl	USPD
	.def	USPD;	.scl	2;	.type	32;	.endef
	.seh_proc	USPD
USPD:
	push	rbp
	.seh_pushreg	rbp
	mov	rbp, rsp
	.seh_setframe	rbp, 0
	.seh_endprologue
.L757:
	mov	rax, QWORD PTR PMOSC$[rip]
	mov	edx, DWORD PTR IUSPD$[rip]
	mov	DWORD PTR [rax], edx
	mov	rax, QWORD PTR PMOSC$[rip]
	add	rax, 4
	mov	QWORD PTR PMOSC$[rip], rax
	nop
	pop	rbp
	ret
.L758:
	.seh_endproc
	.globl	UADD
	.def	UADD;	.scl	2;	.type	32;	.endef
	.seh_proc	UADD
UADD:
	push	rbp
	.seh_pushreg	rbp
	mov	rbp, rsp
	.seh_setframe	rbp, 0
	.seh_endprologue
.L760:
	mov	rax, QWORD PTR PMOSC$[rip]
	mov	edx, DWORD PTR IUADD$[rip]
	mov	DWORD PTR [rax], edx
	mov	rax, QWORD PTR PMOSC$[rip]
	add	rax, 4
	mov	QWORD PTR PMOSC$[rip], rax
	nop
	pop	rbp
	ret
.L761:
	.seh_endproc
	.globl	UIXD
	.def	UIXD;	.scl	2;	.type	32;	.endef
	.seh_proc	UIXD
UIXD:
	push	rbp
	.seh_pushreg	rbp
	mov	rbp, rsp
	.seh_setframe	rbp, 0
	.seh_endprologue
.L763:
	mov	rax, QWORD PTR PMOSC$[rip]
	mov	edx, DWORD PTR IUIXD$[rip]
	mov	DWORD PTR [rax], edx
	mov	rax, QWORD PTR PMOSC$[rip]
	add	rax, 4
	mov	QWORD PTR PMOSC$[rip], rax
	nop
	pop	rbp
	ret
.L764:
	.seh_endproc
	.globl	UIYD
	.def	UIYD;	.scl	2;	.type	32;	.endef
	.seh_proc	UIYD
UIYD:
	push	rbp
	.seh_pushreg	rbp
	mov	rbp, rsp
	.seh_setframe	rbp, 0
	.seh_endprologue
.L766:
	mov	rax, QWORD PTR PMOSC$[rip]
	mov	edx, DWORD PTR IUIYD$[rip]
	mov	DWORD PTR [rax], edx
	mov	rax, QWORD PTR PMOSC$[rip]
	add	rax, 4
	mov	QWORD PTR PMOSC$[rip], rax
	nop
	pop	rbp
	ret
.L767:
	.seh_endproc
	.globl	ULDHL
	.def	ULDHL;	.scl	2;	.type	32;	.endef
	.seh_proc	ULDHL
ULDHL:
	push	rbp
	.seh_pushreg	rbp
	mov	rbp, rsp
	.seh_setframe	rbp, 0
	.seh_endprologue
.L769:
	mov	rax, QWORD PTR PMOSC$[rip]
	mov	edx, DWORD PTR IULDHL$[rip]
	mov	DWORD PTR [rax], edx
	mov	rax, QWORD PTR PMOSC$[rip]
	add	rax, 4
	mov	QWORD PTR PMOSC$[rip], rax
	nop
	pop	rbp
	ret
.L770:
	.seh_endproc
	.globl	ULDWZ
	.def	ULDWZ;	.scl	2;	.type	32;	.endef
	.seh_proc	ULDWZ
ULDWZ:
	push	rbp
	.seh_pushreg	rbp
	mov	rbp, rsp
	.seh_setframe	rbp, 0
	.seh_endprologue
.L772:
	mov	rax, QWORD PTR PMOSC$[rip]
	mov	edx, DWORD PTR IULDWZ$[rip]
	mov	DWORD PTR [rax], edx
	mov	rax, QWORD PTR PMOSC$[rip]
	add	rax, 4
	mov	QWORD PTR PMOSC$[rip], rax
	nop
	pop	rbp
	ret
.L773:
	.seh_endproc
	.globl	ULDPC
	.def	ULDPC;	.scl	2;	.type	32;	.endef
	.seh_proc	ULDPC
ULDPC:
	push	rbp
	.seh_pushreg	rbp
	mov	rbp, rsp
	.seh_setframe	rbp, 0
	.seh_endprologue
.L775:
	mov	rax, QWORD PTR PMOSC$[rip]
	mov	edx, DWORD PTR IULDPC$[rip]
	mov	DWORD PTR [rax], edx
	mov	rax, QWORD PTR PMOSC$[rip]
	add	rax, 4
	mov	QWORD PTR PMOSC$[rip], rax
	nop
	pop	rbp
	ret
.L776:
	.seh_endproc
	.globl	ULDIX
	.def	ULDIX;	.scl	2;	.type	32;	.endef
	.seh_proc	ULDIX
ULDIX:
	push	rbp
	.seh_pushreg	rbp
	mov	rbp, rsp
	.seh_setframe	rbp, 0
	.seh_endprologue
.L778:
	mov	rax, QWORD PTR PMOSC$[rip]
	mov	edx, DWORD PTR IULDIX$[rip]
	mov	DWORD PTR [rax], edx
	mov	rax, QWORD PTR PMOSC$[rip]
	add	rax, 4
	mov	QWORD PTR PMOSC$[rip], rax
	nop
	pop	rbp
	ret
.L779:
	.seh_endproc
	.globl	ULDIY
	.def	ULDIY;	.scl	2;	.type	32;	.endef
	.seh_proc	ULDIY
ULDIY:
	push	rbp
	.seh_pushreg	rbp
	mov	rbp, rsp
	.seh_setframe	rbp, 0
	.seh_endprologue
.L781:
	mov	rax, QWORD PTR PMOSC$[rip]
	mov	edx, DWORD PTR IULDIY$[rip]
	mov	DWORD PTR [rax], edx
	mov	rax, QWORD PTR PMOSC$[rip]
	add	rax, 4
	mov	QWORD PTR PMOSC$[rip], rax
	nop
	pop	rbp
	ret
.L782:
	.seh_endproc
	.globl	ULBCD
	.def	ULBCD;	.scl	2;	.type	32;	.endef
	.seh_proc	ULBCD
ULBCD:
	push	rbp
	.seh_pushreg	rbp
	mov	rbp, rsp
	.seh_setframe	rbp, 0
	.seh_endprologue
.L784:
	mov	rax, QWORD PTR PMOSC$[rip]
	mov	edx, DWORD PTR IULBCD$[rip]
	mov	DWORD PTR [rax], edx
	mov	rax, QWORD PTR PMOSC$[rip]
	add	rax, 4
	mov	QWORD PTR PMOSC$[rip], rax
	nop
	pop	rbp
	ret
.L785:
	.seh_endproc
	.globl	ULDED
	.def	ULDED;	.scl	2;	.type	32;	.endef
	.seh_proc	ULDED
ULDED:
	push	rbp
	.seh_pushreg	rbp
	mov	rbp, rsp
	.seh_setframe	rbp, 0
	.seh_endprologue
.L787:
	mov	rax, QWORD PTR PMOSC$[rip]
	mov	edx, DWORD PTR IULDED$[rip]
	mov	DWORD PTR [rax], edx
	mov	rax, QWORD PTR PMOSC$[rip]
	add	rax, 4
	mov	QWORD PTR PMOSC$[rip], rax
	nop
	pop	rbp
	ret
.L788:
	.seh_endproc
	.globl	ULHLD
	.def	ULHLD;	.scl	2;	.type	32;	.endef
	.seh_proc	ULHLD
ULHLD:
	push	rbp
	.seh_pushreg	rbp
	mov	rbp, rsp
	.seh_setframe	rbp, 0
	.seh_endprologue
.L790:
	mov	rax, QWORD PTR PMOSC$[rip]
	mov	edx, DWORD PTR IULHLD$[rip]
	mov	DWORD PTR [rax], edx
	mov	rax, QWORD PTR PMOSC$[rip]
	add	rax, 4
	mov	QWORD PTR PMOSC$[rip], rax
	nop
	pop	rbp
	ret
.L791:
	.seh_endproc
	.globl	ULWZD
	.def	ULWZD;	.scl	2;	.type	32;	.endef
	.seh_proc	ULWZD
ULWZD:
	push	rbp
	.seh_pushreg	rbp
	mov	rbp, rsp
	.seh_setframe	rbp, 0
	.seh_endprologue
.L793:
	mov	rax, QWORD PTR PMOSC$[rip]
	mov	edx, DWORD PTR IULWZD$[rip]
	mov	DWORD PTR [rax], edx
	mov	rax, QWORD PTR PMOSC$[rip]
	add	rax, 4
	mov	QWORD PTR PMOSC$[rip], rax
	nop
	pop	rbp
	ret
.L794:
	.seh_endproc
	.globl	ULSPD
	.def	ULSPD;	.scl	2;	.type	32;	.endef
	.seh_proc	ULSPD
ULSPD:
	push	rbp
	.seh_pushreg	rbp
	mov	rbp, rsp
	.seh_setframe	rbp, 0
	.seh_endprologue
.L796:
	mov	rax, QWORD PTR PMOSC$[rip]
	mov	edx, DWORD PTR IULSPD$[rip]
	mov	DWORD PTR [rax], edx
	mov	rax, QWORD PTR PMOSC$[rip]
	add	rax, 4
	mov	QWORD PTR PMOSC$[rip], rax
	nop
	pop	rbp
	ret
.L797:
	.seh_endproc
	.globl	ULPCD
	.def	ULPCD;	.scl	2;	.type	32;	.endef
	.seh_proc	ULPCD
ULPCD:
	push	rbp
	.seh_pushreg	rbp
	mov	rbp, rsp
	.seh_setframe	rbp, 0
	.seh_endprologue
.L799:
	mov	rax, QWORD PTR PMOSC$[rip]
	mov	edx, DWORD PTR IULPCD$[rip]
	mov	DWORD PTR [rax], edx
	mov	rax, QWORD PTR PMOSC$[rip]
	add	rax, 4
	mov	QWORD PTR PMOSC$[rip], rax
	nop
	pop	rbp
	ret
.L800:
	.seh_endproc
	.globl	ULIXD
	.def	ULIXD;	.scl	2;	.type	32;	.endef
	.seh_proc	ULIXD
ULIXD:
	push	rbp
	.seh_pushreg	rbp
	mov	rbp, rsp
	.seh_setframe	rbp, 0
	.seh_endprologue
.L802:
	mov	rax, QWORD PTR PMOSC$[rip]
	mov	edx, DWORD PTR IULIXD$[rip]
	mov	DWORD PTR [rax], edx
	mov	rax, QWORD PTR PMOSC$[rip]
	add	rax, 4
	mov	QWORD PTR PMOSC$[rip], rax
	nop
	pop	rbp
	ret
.L803:
	.seh_endproc
	.globl	ULIYD
	.def	ULIYD;	.scl	2;	.type	32;	.endef
	.seh_proc	ULIYD
ULIYD:
	push	rbp
	.seh_pushreg	rbp
	mov	rbp, rsp
	.seh_setframe	rbp, 0
	.seh_endprologue
.L805:
	mov	rax, QWORD PTR PMOSC$[rip]
	mov	edx, DWORD PTR IULIYD$[rip]
	mov	DWORD PTR [rax], edx
	mov	rax, QWORD PTR PMOSC$[rip]
	add	rax, 4
	mov	QWORD PTR PMOSC$[rip], rax
	nop
	pop	rbp
	ret
.L806:
	.seh_endproc
	.globl	ULLR
	.def	ULLR;	.scl	2;	.type	32;	.endef
	.seh_proc	ULLR
ULLR:
	push	rbp
	.seh_pushreg	rbp
	mov	rbp, rsp
	.seh_setframe	rbp, 0
	.seh_endprologue
	mov	DWORD PTR 16[rbp], ecx
.L808:
	mov	eax, DWORD PTR IULLRB$[rip]
	mov	edx, eax
	mov	eax, DWORD PTR 16[rbp]
	sub	edx, eax
	mov	eax, edx
	lea	edx, 7[rax]
	mov	rax, QWORD PTR PMOSC$[rip]
	mov	DWORD PTR [rax], edx
	mov	rax, QWORD PTR PMOSC$[rip]
	add	rax, 4
	mov	QWORD PTR PMOSC$[rip], rax
	nop
	pop	rbp
	ret
.L809:
	.seh_endproc
	.globl	ULLRB
	.def	ULLRB;	.scl	2;	.type	32;	.endef
	.seh_proc	ULLRB
ULLRB:
	push	rbp
	.seh_pushreg	rbp
	mov	rbp, rsp
	.seh_setframe	rbp, 0
	.seh_endprologue
.L811:
	mov	rax, QWORD PTR PMOSC$[rip]
	mov	edx, DWORD PTR IULLRB$[rip]
	mov	DWORD PTR [rax], edx
	mov	rax, QWORD PTR PMOSC$[rip]
	add	rax, 4
	mov	QWORD PTR PMOSC$[rip], rax
	nop
	pop	rbp
	ret
.L812:
	.seh_endproc
	.globl	ULLRC
	.def	ULLRC;	.scl	2;	.type	32;	.endef
	.seh_proc	ULLRC
ULLRC:
	push	rbp
	.seh_pushreg	rbp
	mov	rbp, rsp
	.seh_setframe	rbp, 0
	.seh_endprologue
.L814:
	mov	rax, QWORD PTR PMOSC$[rip]
	mov	edx, DWORD PTR IULLRC$[rip]
	mov	DWORD PTR [rax], edx
	mov	rax, QWORD PTR PMOSC$[rip]
	add	rax, 4
	mov	QWORD PTR PMOSC$[rip], rax
	nop
	pop	rbp
	ret
.L815:
	.seh_endproc
	.globl	ULLRD
	.def	ULLRD;	.scl	2;	.type	32;	.endef
	.seh_proc	ULLRD
ULLRD:
	push	rbp
	.seh_pushreg	rbp
	mov	rbp, rsp
	.seh_setframe	rbp, 0
	.seh_endprologue
.L817:
	mov	rax, QWORD PTR PMOSC$[rip]
	mov	edx, DWORD PTR IULLRD$[rip]
	mov	DWORD PTR [rax], edx
	mov	rax, QWORD PTR PMOSC$[rip]
	add	rax, 4
	mov	QWORD PTR PMOSC$[rip], rax
	nop
	pop	rbp
	ret
.L818:
	.seh_endproc
	.globl	ULLRE
	.def	ULLRE;	.scl	2;	.type	32;	.endef
	.seh_proc	ULLRE
ULLRE:
	push	rbp
	.seh_pushreg	rbp
	mov	rbp, rsp
	.seh_setframe	rbp, 0
	.seh_endprologue
.L820:
	mov	rax, QWORD PTR PMOSC$[rip]
	mov	edx, DWORD PTR IULLRE$[rip]
	mov	DWORD PTR [rax], edx
	mov	rax, QWORD PTR PMOSC$[rip]
	add	rax, 4
	mov	QWORD PTR PMOSC$[rip], rax
	nop
	pop	rbp
	ret
.L821:
	.seh_endproc
	.globl	ULLRH
	.def	ULLRH;	.scl	2;	.type	32;	.endef
	.seh_proc	ULLRH
ULLRH:
	push	rbp
	.seh_pushreg	rbp
	mov	rbp, rsp
	.seh_setframe	rbp, 0
	.seh_endprologue
.L823:
	mov	rax, QWORD PTR PMOSC$[rip]
	mov	edx, DWORD PTR IULLRH$[rip]
	mov	DWORD PTR [rax], edx
	mov	rax, QWORD PTR PMOSC$[rip]
	add	rax, 4
	mov	QWORD PTR PMOSC$[rip], rax
	nop
	pop	rbp
	ret
.L824:
	.seh_endproc
	.globl	ULLRL
	.def	ULLRL;	.scl	2;	.type	32;	.endef
	.seh_proc	ULLRL
ULLRL:
	push	rbp
	.seh_pushreg	rbp
	mov	rbp, rsp
	.seh_setframe	rbp, 0
	.seh_endprologue
.L826:
	mov	rax, QWORD PTR PMOSC$[rip]
	mov	edx, DWORD PTR IULLRL$[rip]
	mov	DWORD PTR [rax], edx
	mov	rax, QWORD PTR PMOSC$[rip]
	add	rax, 4
	mov	QWORD PTR PMOSC$[rip], rax
	nop
	pop	rbp
	ret
.L827:
	.seh_endproc
	.globl	ULLRA
	.def	ULLRA;	.scl	2;	.type	32;	.endef
	.seh_proc	ULLRA
ULLRA:
	push	rbp
	.seh_pushreg	rbp
	mov	rbp, rsp
	.seh_setframe	rbp, 0
	.seh_endprologue
.L829:
	mov	rax, QWORD PTR PMOSC$[rip]
	mov	edx, DWORD PTR IULLRA$[rip]
	mov	DWORD PTR [rax], edx
	mov	rax, QWORD PTR PMOSC$[rip]
	add	rax, 4
	mov	QWORD PTR PMOSC$[rip], rax
	nop
	pop	rbp
	ret
.L830:
	.seh_endproc
	.globl	ULLRT
	.def	ULLRT;	.scl	2;	.type	32;	.endef
	.seh_proc	ULLRT
ULLRT:
	push	rbp
	.seh_pushreg	rbp
	mov	rbp, rsp
	.seh_setframe	rbp, 0
	.seh_endprologue
.L832:
	mov	rax, QWORD PTR PMOSC$[rip]
	mov	edx, DWORD PTR IULLRT$[rip]
	mov	DWORD PTR [rax], edx
	mov	rax, QWORD PTR PMOSC$[rip]
	add	rax, 4
	mov	QWORD PTR PMOSC$[rip], rax
	nop
	pop	rbp
	ret
.L833:
	.seh_endproc
	.globl	ULLRZ
	.def	ULLRZ;	.scl	2;	.type	32;	.endef
	.seh_proc	ULLRZ
ULLRZ:
	push	rbp
	.seh_pushreg	rbp
	mov	rbp, rsp
	.seh_setframe	rbp, 0
	.seh_endprologue
.L835:
	mov	rax, QWORD PTR PMOSC$[rip]
	mov	edx, DWORD PTR IULLRZ$[rip]
	mov	DWORD PTR [rax], edx
	mov	rax, QWORD PTR PMOSC$[rip]
	add	rax, 4
	mov	QWORD PTR PMOSC$[rip], rax
	nop
	pop	rbp
	ret
.L836:
	.seh_endproc
	.globl	ULLRW
	.def	ULLRW;	.scl	2;	.type	32;	.endef
	.seh_proc	ULLRW
ULLRW:
	push	rbp
	.seh_pushreg	rbp
	mov	rbp, rsp
	.seh_setframe	rbp, 0
	.seh_endprologue
.L838:
	mov	rax, QWORD PTR PMOSC$[rip]
	mov	edx, DWORD PTR IULLRW$[rip]
	mov	DWORD PTR [rax], edx
	mov	rax, QWORD PTR PMOSC$[rip]
	add	rax, 4
	mov	QWORD PTR PMOSC$[rip], rax
	nop
	pop	rbp
	ret
.L839:
	.seh_endproc
	.globl	ULLXL
	.def	ULLXL;	.scl	2;	.type	32;	.endef
	.seh_proc	ULLXL
ULLXL:
	push	rbp
	.seh_pushreg	rbp
	mov	rbp, rsp
	.seh_setframe	rbp, 0
	.seh_endprologue
.L841:
	mov	rax, QWORD PTR PMOSC$[rip]
	mov	edx, DWORD PTR IULLXL$[rip]
	mov	DWORD PTR [rax], edx
	mov	rax, QWORD PTR PMOSC$[rip]
	add	rax, 4
	mov	QWORD PTR PMOSC$[rip], rax
	nop
	pop	rbp
	ret
.L842:
	.seh_endproc
	.globl	ULLXH
	.def	ULLXH;	.scl	2;	.type	32;	.endef
	.seh_proc	ULLXH
ULLXH:
	push	rbp
	.seh_pushreg	rbp
	mov	rbp, rsp
	.seh_setframe	rbp, 0
	.seh_endprologue
.L844:
	mov	rax, QWORD PTR PMOSC$[rip]
	mov	edx, DWORD PTR IULLXH$[rip]
	mov	DWORD PTR [rax], edx
	mov	rax, QWORD PTR PMOSC$[rip]
	add	rax, 4
	mov	QWORD PTR PMOSC$[rip], rax
	nop
	pop	rbp
	ret
.L845:
	.seh_endproc
	.globl	ULLYL
	.def	ULLYL;	.scl	2;	.type	32;	.endef
	.seh_proc	ULLYL
ULLYL:
	push	rbp
	.seh_pushreg	rbp
	mov	rbp, rsp
	.seh_setframe	rbp, 0
	.seh_endprologue
.L847:
	mov	rax, QWORD PTR PMOSC$[rip]
	mov	edx, DWORD PTR IULLYL$[rip]
	mov	DWORD PTR [rax], edx
	mov	rax, QWORD PTR PMOSC$[rip]
	add	rax, 4
	mov	QWORD PTR PMOSC$[rip], rax
	nop
	pop	rbp
	ret
.L848:
	.seh_endproc
	.globl	ULLYH
	.def	ULLYH;	.scl	2;	.type	32;	.endef
	.seh_proc	ULLYH
ULLYH:
	push	rbp
	.seh_pushreg	rbp
	mov	rbp, rsp
	.seh_setframe	rbp, 0
	.seh_endprologue
.L850:
	mov	rax, QWORD PTR PMOSC$[rip]
	mov	edx, DWORD PTR IULLYH$[rip]
	mov	DWORD PTR [rax], edx
	mov	rax, QWORD PTR PMOSC$[rip]
	add	rax, 4
	mov	QWORD PTR PMOSC$[rip], rax
	nop
	pop	rbp
	ret
.L851:
	.seh_endproc
	.globl	ULLPL
	.def	ULLPL;	.scl	2;	.type	32;	.endef
	.seh_proc	ULLPL
ULLPL:
	push	rbp
	.seh_pushreg	rbp
	mov	rbp, rsp
	.seh_setframe	rbp, 0
	.seh_endprologue
.L853:
	mov	rax, QWORD PTR PMOSC$[rip]
	mov	edx, DWORD PTR IULLPL$[rip]
	mov	DWORD PTR [rax], edx
	mov	rax, QWORD PTR PMOSC$[rip]
	add	rax, 4
	mov	QWORD PTR PMOSC$[rip], rax
	nop
	pop	rbp
	ret
.L854:
	.seh_endproc
	.globl	ULLPH
	.def	ULLPH;	.scl	2;	.type	32;	.endef
	.seh_proc	ULLPH
ULLPH:
	push	rbp
	.seh_pushreg	rbp
	mov	rbp, rsp
	.seh_setframe	rbp, 0
	.seh_endprologue
.L856:
	mov	rax, QWORD PTR PMOSC$[rip]
	mov	edx, DWORD PTR IULLPH$[rip]
	mov	DWORD PTR [rax], edx
	mov	rax, QWORD PTR PMOSC$[rip]
	add	rax, 4
	mov	QWORD PTR PMOSC$[rip], rax
	nop
	pop	rbp
	ret
.L857:
	.seh_endproc
	.globl	ULRL
	.def	ULRL;	.scl	2;	.type	32;	.endef
	.seh_proc	ULRL
ULRL:
	push	rbp
	.seh_pushreg	rbp
	mov	rbp, rsp
	.seh_setframe	rbp, 0
	.seh_endprologue
	mov	DWORD PTR 16[rbp], ecx
.L859:
	mov	eax, DWORD PTR IULRBL$[rip]
	mov	edx, eax
	mov	eax, DWORD PTR 16[rbp]
	sub	edx, eax
	mov	eax, edx
	lea	edx, 7[rax]
	mov	rax, QWORD PTR PMOSC$[rip]
	mov	DWORD PTR [rax], edx
	mov	rax, QWORD PTR PMOSC$[rip]
	add	rax, 4
	mov	QWORD PTR PMOSC$[rip], rax
	nop
	pop	rbp
	ret
.L860:
	.seh_endproc
	.globl	ULRBL
	.def	ULRBL;	.scl	2;	.type	32;	.endef
	.seh_proc	ULRBL
ULRBL:
	push	rbp
	.seh_pushreg	rbp
	mov	rbp, rsp
	.seh_setframe	rbp, 0
	.seh_endprologue
.L862:
	mov	rax, QWORD PTR PMOSC$[rip]
	mov	edx, DWORD PTR IULRBL$[rip]
	mov	DWORD PTR [rax], edx
	mov	rax, QWORD PTR PMOSC$[rip]
	add	rax, 4
	mov	QWORD PTR PMOSC$[rip], rax
	nop
	pop	rbp
	ret
.L863:
	.seh_endproc
	.globl	ULRCL
	.def	ULRCL;	.scl	2;	.type	32;	.endef
	.seh_proc	ULRCL
ULRCL:
	push	rbp
	.seh_pushreg	rbp
	mov	rbp, rsp
	.seh_setframe	rbp, 0
	.seh_endprologue
.L865:
	mov	rax, QWORD PTR PMOSC$[rip]
	mov	edx, DWORD PTR IULRCL$[rip]
	mov	DWORD PTR [rax], edx
	mov	rax, QWORD PTR PMOSC$[rip]
	add	rax, 4
	mov	QWORD PTR PMOSC$[rip], rax
	nop
	pop	rbp
	ret
.L866:
	.seh_endproc
	.globl	ULRDL
	.def	ULRDL;	.scl	2;	.type	32;	.endef
	.seh_proc	ULRDL
ULRDL:
	push	rbp
	.seh_pushreg	rbp
	mov	rbp, rsp
	.seh_setframe	rbp, 0
	.seh_endprologue
.L868:
	mov	rax, QWORD PTR PMOSC$[rip]
	mov	edx, DWORD PTR IULRDL$[rip]
	mov	DWORD PTR [rax], edx
	mov	rax, QWORD PTR PMOSC$[rip]
	add	rax, 4
	mov	QWORD PTR PMOSC$[rip], rax
	nop
	pop	rbp
	ret
.L869:
	.seh_endproc
	.globl	ULREL
	.def	ULREL;	.scl	2;	.type	32;	.endef
	.seh_proc	ULREL
ULREL:
	push	rbp
	.seh_pushreg	rbp
	mov	rbp, rsp
	.seh_setframe	rbp, 0
	.seh_endprologue
.L871:
	mov	rax, QWORD PTR PMOSC$[rip]
	mov	edx, DWORD PTR IULREL$[rip]
	mov	DWORD PTR [rax], edx
	mov	rax, QWORD PTR PMOSC$[rip]
	add	rax, 4
	mov	QWORD PTR PMOSC$[rip], rax
	nop
	pop	rbp
	ret
.L872:
	.seh_endproc
	.globl	ULRHL
	.def	ULRHL;	.scl	2;	.type	32;	.endef
	.seh_proc	ULRHL
ULRHL:
	push	rbp
	.seh_pushreg	rbp
	mov	rbp, rsp
	.seh_setframe	rbp, 0
	.seh_endprologue
.L874:
	mov	rax, QWORD PTR PMOSC$[rip]
	mov	edx, DWORD PTR IULRHL$[rip]
	mov	DWORD PTR [rax], edx
	mov	rax, QWORD PTR PMOSC$[rip]
	add	rax, 4
	mov	QWORD PTR PMOSC$[rip], rax
	nop
	pop	rbp
	ret
.L875:
	.seh_endproc
	.globl	ULRLL
	.def	ULRLL;	.scl	2;	.type	32;	.endef
	.seh_proc	ULRLL
ULRLL:
	push	rbp
	.seh_pushreg	rbp
	mov	rbp, rsp
	.seh_setframe	rbp, 0
	.seh_endprologue
.L877:
	mov	rax, QWORD PTR PMOSC$[rip]
	mov	edx, DWORD PTR IULRLL$[rip]
	mov	DWORD PTR [rax], edx
	mov	rax, QWORD PTR PMOSC$[rip]
	add	rax, 4
	mov	QWORD PTR PMOSC$[rip], rax
	nop
	pop	rbp
	ret
.L878:
	.seh_endproc
	.globl	ULRAL
	.def	ULRAL;	.scl	2;	.type	32;	.endef
	.seh_proc	ULRAL
ULRAL:
	push	rbp
	.seh_pushreg	rbp
	mov	rbp, rsp
	.seh_setframe	rbp, 0
	.seh_endprologue
.L880:
	mov	rax, QWORD PTR PMOSC$[rip]
	mov	edx, DWORD PTR IULRAL$[rip]
	mov	DWORD PTR [rax], edx
	mov	rax, QWORD PTR PMOSC$[rip]
	add	rax, 4
	mov	QWORD PTR PMOSC$[rip], rax
	nop
	pop	rbp
	ret
.L881:
	.seh_endproc
	.globl	ULRTL
	.def	ULRTL;	.scl	2;	.type	32;	.endef
	.seh_proc	ULRTL
ULRTL:
	push	rbp
	.seh_pushreg	rbp
	mov	rbp, rsp
	.seh_setframe	rbp, 0
	.seh_endprologue
.L883:
	mov	rax, QWORD PTR PMOSC$[rip]
	mov	edx, DWORD PTR IULRTL$[rip]
	mov	DWORD PTR [rax], edx
	mov	rax, QWORD PTR PMOSC$[rip]
	add	rax, 4
	mov	QWORD PTR PMOSC$[rip], rax
	nop
	pop	rbp
	ret
.L884:
	.seh_endproc
	.globl	ULRZL
	.def	ULRZL;	.scl	2;	.type	32;	.endef
	.seh_proc	ULRZL
ULRZL:
	push	rbp
	.seh_pushreg	rbp
	mov	rbp, rsp
	.seh_setframe	rbp, 0
	.seh_endprologue
.L886:
	mov	rax, QWORD PTR PMOSC$[rip]
	mov	edx, DWORD PTR IULRZL$[rip]
	mov	DWORD PTR [rax], edx
	mov	rax, QWORD PTR PMOSC$[rip]
	add	rax, 4
	mov	QWORD PTR PMOSC$[rip], rax
	nop
	pop	rbp
	ret
.L887:
	.seh_endproc
	.globl	ULRWL
	.def	ULRWL;	.scl	2;	.type	32;	.endef
	.seh_proc	ULRWL
ULRWL:
	push	rbp
	.seh_pushreg	rbp
	mov	rbp, rsp
	.seh_setframe	rbp, 0
	.seh_endprologue
.L889:
	mov	rax, QWORD PTR PMOSC$[rip]
	mov	edx, DWORD PTR IULRWL$[rip]
	mov	DWORD PTR [rax], edx
	mov	rax, QWORD PTR PMOSC$[rip]
	add	rax, 4
	mov	QWORD PTR PMOSC$[rip], rax
	nop
	pop	rbp
	ret
.L890:
	.seh_endproc
	.globl	ULXLL
	.def	ULXLL;	.scl	2;	.type	32;	.endef
	.seh_proc	ULXLL
ULXLL:
	push	rbp
	.seh_pushreg	rbp
	mov	rbp, rsp
	.seh_setframe	rbp, 0
	.seh_endprologue
.L892:
	mov	rax, QWORD PTR PMOSC$[rip]
	mov	edx, DWORD PTR IULXLL$[rip]
	mov	DWORD PTR [rax], edx
	mov	rax, QWORD PTR PMOSC$[rip]
	add	rax, 4
	mov	QWORD PTR PMOSC$[rip], rax
	nop
	pop	rbp
	ret
.L893:
	.seh_endproc
	.globl	ULXHL
	.def	ULXHL;	.scl	2;	.type	32;	.endef
	.seh_proc	ULXHL
ULXHL:
	push	rbp
	.seh_pushreg	rbp
	mov	rbp, rsp
	.seh_setframe	rbp, 0
	.seh_endprologue
.L895:
	mov	rax, QWORD PTR PMOSC$[rip]
	mov	edx, DWORD PTR IULXHL$[rip]
	mov	DWORD PTR [rax], edx
	mov	rax, QWORD PTR PMOSC$[rip]
	add	rax, 4
	mov	QWORD PTR PMOSC$[rip], rax
	nop
	pop	rbp
	ret
.L896:
	.seh_endproc
	.globl	ULYLL
	.def	ULYLL;	.scl	2;	.type	32;	.endef
	.seh_proc	ULYLL
ULYLL:
	push	rbp
	.seh_pushreg	rbp
	mov	rbp, rsp
	.seh_setframe	rbp, 0
	.seh_endprologue
.L898:
	mov	rax, QWORD PTR PMOSC$[rip]
	mov	edx, DWORD PTR IULYLL$[rip]
	mov	DWORD PTR [rax], edx
	mov	rax, QWORD PTR PMOSC$[rip]
	add	rax, 4
	mov	QWORD PTR PMOSC$[rip], rax
	nop
	pop	rbp
	ret
.L899:
	.seh_endproc
	.globl	ULYHL
	.def	ULYHL;	.scl	2;	.type	32;	.endef
	.seh_proc	ULYHL
ULYHL:
	push	rbp
	.seh_pushreg	rbp
	mov	rbp, rsp
	.seh_setframe	rbp, 0
	.seh_endprologue
.L901:
	mov	rax, QWORD PTR PMOSC$[rip]
	mov	edx, DWORD PTR IULYHL$[rip]
	mov	DWORD PTR [rax], edx
	mov	rax, QWORD PTR PMOSC$[rip]
	add	rax, 4
	mov	QWORD PTR PMOSC$[rip], rax
	nop
	pop	rbp
	ret
.L902:
	.seh_endproc
	.globl	UTRD
	.def	UTRD;	.scl	2;	.type	32;	.endef
	.seh_proc	UTRD
UTRD:
	push	rbp
	.seh_pushreg	rbp
	mov	rbp, rsp
	.seh_setframe	rbp, 0
	.seh_endprologue
.L904:
	mov	rax, QWORD PTR PMOSC$[rip]
	mov	edx, DWORD PTR IUTRD$[rip]
	mov	DWORD PTR [rax], edx
	mov	rax, QWORD PTR PMOSC$[rip]
	add	rax, 4
	mov	QWORD PTR PMOSC$[rip], rax
	nop
	pop	rbp
	ret
.L905:
	.seh_endproc
	.globl	UDOW
	.def	UDOW;	.scl	2;	.type	32;	.endef
	.seh_proc	UDOW
UDOW:
	push	rbp
	.seh_pushreg	rbp
	mov	rbp, rsp
	.seh_setframe	rbp, 0
	.seh_endprologue
.L907:
	mov	rax, QWORD PTR PMOSC$[rip]
	mov	edx, DWORD PTR IUDOW$[rip]
	mov	DWORD PTR [rax], edx
	mov	rax, QWORD PTR PMOSC$[rip]
	add	rax, 4
	mov	QWORD PTR PMOSC$[rip], rax
	nop
	pop	rbp
	ret
.L908:
	.seh_endproc
	.globl	UPOW
	.def	UPOW;	.scl	2;	.type	32;	.endef
	.seh_proc	UPOW
UPOW:
	push	rbp
	.seh_pushreg	rbp
	mov	rbp, rsp
	.seh_setframe	rbp, 0
	.seh_endprologue
.L910:
	mov	rax, QWORD PTR PMOSC$[rip]
	mov	edx, DWORD PTR IUPOW$[rip]
	mov	DWORD PTR [rax], edx
	mov	rax, QWORD PTR PMOSC$[rip]
	add	rax, 4
	mov	QWORD PTR PMOSC$[rip], rax
	nop
	pop	rbp
	ret
.L911:
	.seh_endproc
	.globl	UTIO
	.def	UTIO;	.scl	2;	.type	32;	.endef
	.seh_proc	UTIO
UTIO:
	push	rbp
	.seh_pushreg	rbp
	mov	rbp, rsp
	.seh_setframe	rbp, 0
	.seh_endprologue
.L913:
	mov	rax, QWORD PTR PMOSC$[rip]
	mov	edx, DWORD PTR IUTIO$[rip]
	mov	DWORD PTR [rax], edx
	mov	rax, QWORD PTR PMOSC$[rip]
	add	rax, 4
	mov	QWORD PTR PMOSC$[rip], rax
	nop
	pop	rbp
	ret
.L914:
	.seh_endproc
	.globl	URCW
	.def	URCW;	.scl	2;	.type	32;	.endef
	.seh_proc	URCW
URCW:
	push	rbp
	.seh_pushreg	rbp
	mov	rbp, rsp
	.seh_setframe	rbp, 0
	.seh_endprologue
.L916:
	mov	rax, QWORD PTR PMOSC$[rip]
	mov	edx, DWORD PTR IURCW$[rip]
	mov	DWORD PTR [rax], edx
	mov	rax, QWORD PTR PMOSC$[rip]
	add	rax, 4
	mov	QWORD PTR PMOSC$[rip], rax
	nop
	pop	rbp
	ret
.L917:
	.seh_endproc
	.globl	UWCW
	.def	UWCW;	.scl	2;	.type	32;	.endef
	.seh_proc	UWCW
UWCW:
	push	rbp
	.seh_pushreg	rbp
	mov	rbp, rsp
	.seh_setframe	rbp, 0
	.seh_endprologue
.L919:
	mov	rax, QWORD PTR PMOSC$[rip]
	mov	edx, DWORD PTR IUWCW$[rip]
	mov	DWORD PTR [rax], edx
	mov	rax, QWORD PTR PMOSC$[rip]
	add	rax, 4
	mov	QWORD PTR PMOSC$[rip], rax
	nop
	pop	rbp
	ret
.L920:
	.seh_endproc
	.globl	UADBC
	.def	UADBC;	.scl	2;	.type	32;	.endef
	.seh_proc	UADBC
UADBC:
	push	rbp
	.seh_pushreg	rbp
	mov	rbp, rsp
	.seh_setframe	rbp, 0
	.seh_endprologue
.L922:
	mov	rax, QWORD PTR PMOSC$[rip]
	mov	edx, DWORD PTR IUADBC$[rip]
	mov	DWORD PTR [rax], edx
	mov	rax, QWORD PTR PMOSC$[rip]
	add	rax, 4
	mov	QWORD PTR PMOSC$[rip], rax
	nop
	pop	rbp
	ret
.L923:
	.seh_endproc
	.globl	UADDE
	.def	UADDE;	.scl	2;	.type	32;	.endef
	.seh_proc	UADDE
UADDE:
	push	rbp
	.seh_pushreg	rbp
	mov	rbp, rsp
	.seh_setframe	rbp, 0
	.seh_endprologue
.L925:
	mov	rax, QWORD PTR PMOSC$[rip]
	mov	edx, DWORD PTR IUADDE$[rip]
	mov	DWORD PTR [rax], edx
	mov	rax, QWORD PTR PMOSC$[rip]
	add	rax, 4
	mov	QWORD PTR PMOSC$[rip], rax
	nop
	pop	rbp
	ret
.L926:
	.seh_endproc
	.globl	UAHL
	.def	UAHL;	.scl	2;	.type	32;	.endef
	.seh_proc	UAHL
UAHL:
	push	rbp
	.seh_pushreg	rbp
	mov	rbp, rsp
	.seh_setframe	rbp, 0
	.seh_endprologue
.L928:
	mov	rax, QWORD PTR PMOSC$[rip]
	mov	edx, DWORD PTR IUAHL$[rip]
	mov	DWORD PTR [rax], edx
	mov	rax, QWORD PTR PMOSC$[rip]
	add	rax, 4
	mov	QWORD PTR PMOSC$[rip], rax
	nop
	pop	rbp
	ret
.L929:
	.seh_endproc
	.globl	UAWZ
	.def	UAWZ;	.scl	2;	.type	32;	.endef
	.seh_proc	UAWZ
UAWZ:
	push	rbp
	.seh_pushreg	rbp
	mov	rbp, rsp
	.seh_setframe	rbp, 0
	.seh_endprologue
.L931:
	mov	rax, QWORD PTR PMOSC$[rip]
	mov	edx, DWORD PTR IUAWZ$[rip]
	mov	DWORD PTR [rax], edx
	mov	rax, QWORD PTR PMOSC$[rip]
	add	rax, 4
	mov	QWORD PTR PMOSC$[rip], rax
	nop
	pop	rbp
	ret
.L932:
	.seh_endproc
	.globl	UAAD
	.def	UAAD;	.scl	2;	.type	32;	.endef
	.seh_proc	UAAD
UAAD:
	push	rbp
	.seh_pushreg	rbp
	mov	rbp, rsp
	.seh_setframe	rbp, 0
	.seh_endprologue
.L934:
	mov	rax, QWORD PTR PMOSC$[rip]
	mov	edx, DWORD PTR IUAAD$[rip]
	mov	DWORD PTR [rax], edx
	mov	rax, QWORD PTR PMOSC$[rip]
	add	rax, 4
	mov	QWORD PTR PMOSC$[rip], rax
	nop
	pop	rbp
	ret
.L935:
	.seh_endproc
	.globl	UADSP
	.def	UADSP;	.scl	2;	.type	32;	.endef
	.seh_proc	UADSP
UADSP:
	push	rbp
	.seh_pushreg	rbp
	mov	rbp, rsp
	.seh_setframe	rbp, 0
	.seh_endprologue
.L937:
	mov	rax, QWORD PTR PMOSC$[rip]
	mov	edx, DWORD PTR IUADSP$[rip]
	mov	DWORD PTR [rax], edx
	mov	rax, QWORD PTR PMOSC$[rip]
	add	rax, 4
	mov	QWORD PTR PMOSC$[rip], rax
	nop
	pop	rbp
	ret
.L938:
	.seh_endproc
	.globl	UAIX
	.def	UAIX;	.scl	2;	.type	32;	.endef
	.seh_proc	UAIX
UAIX:
	push	rbp
	.seh_pushreg	rbp
	mov	rbp, rsp
	.seh_setframe	rbp, 0
	.seh_endprologue
.L940:
	mov	rax, QWORD PTR PMOSC$[rip]
	mov	edx, DWORD PTR IUAIX$[rip]
	mov	DWORD PTR [rax], edx
	mov	rax, QWORD PTR PMOSC$[rip]
	add	rax, 4
	mov	QWORD PTR PMOSC$[rip], rax
	nop
	pop	rbp
	ret
.L941:
	.seh_endproc
	.globl	UAIY
	.def	UAIY;	.scl	2;	.type	32;	.endef
	.seh_proc	UAIY
UAIY:
	push	rbp
	.seh_pushreg	rbp
	mov	rbp, rsp
	.seh_setframe	rbp, 0
	.seh_endprologue
.L943:
	mov	rax, QWORD PTR PMOSC$[rip]
	mov	edx, DWORD PTR IUAIY$[rip]
	mov	DWORD PTR [rax], edx
	mov	rax, QWORD PTR PMOSC$[rip]
	add	rax, 4
	mov	QWORD PTR PMOSC$[rip], rax
	nop
	pop	rbp
	ret
.L944:
	.seh_endproc
	.globl	URWR
	.def	URWR;	.scl	2;	.type	32;	.endef
	.seh_proc	URWR
URWR:
	push	rbp
	.seh_pushreg	rbp
	mov	rbp, rsp
	.seh_setframe	rbp, 0
	.seh_endprologue
	mov	DWORD PTR 16[rbp], ecx
.L946:
	mov	eax, DWORD PTR IUBWR$[rip]
	mov	edx, eax
	mov	eax, DWORD PTR 16[rbp]
	sub	edx, eax
	mov	eax, edx
	lea	edx, 7[rax]
	mov	rax, QWORD PTR PMOSC$[rip]
	mov	DWORD PTR [rax], edx
	mov	rax, QWORD PTR PMOSC$[rip]
	add	rax, 4
	mov	QWORD PTR PMOSC$[rip], rax
	nop
	pop	rbp
	ret
.L947:
	.seh_endproc
	.globl	UAWR
	.def	UAWR;	.scl	2;	.type	32;	.endef
	.seh_proc	UAWR
UAWR:
	push	rbp
	.seh_pushreg	rbp
	mov	rbp, rsp
	.seh_setframe	rbp, 0
	.seh_endprologue
.L949:
	mov	rax, QWORD PTR PMOSC$[rip]
	mov	edx, DWORD PTR IUAWR$[rip]
	mov	DWORD PTR [rax], edx
	mov	rax, QWORD PTR PMOSC$[rip]
	add	rax, 4
	mov	QWORD PTR PMOSC$[rip], rax
	nop
	pop	rbp
	ret
.L950:
	.seh_endproc
	.globl	UTWR
	.def	UTWR;	.scl	2;	.type	32;	.endef
	.seh_proc	UTWR
UTWR:
	push	rbp
	.seh_pushreg	rbp
	mov	rbp, rsp
	.seh_setframe	rbp, 0
	.seh_endprologue
.L952:
	mov	rax, QWORD PTR PMOSC$[rip]
	mov	edx, DWORD PTR IUTWR$[rip]
	mov	DWORD PTR [rax], edx
	mov	rax, QWORD PTR PMOSC$[rip]
	add	rax, 4
	mov	QWORD PTR PMOSC$[rip], rax
	nop
	pop	rbp
	ret
.L953:
	.seh_endproc
	.globl	UOWR
	.def	UOWR;	.scl	2;	.type	32;	.endef
	.seh_proc	UOWR
UOWR:
	push	rbp
	.seh_pushreg	rbp
	mov	rbp, rsp
	.seh_setframe	rbp, 0
	.seh_endprologue
.L955:
	mov	rax, QWORD PTR PMOSC$[rip]
	mov	edx, DWORD PTR IUOWR$[rip]
	mov	DWORD PTR [rax], edx
	mov	rax, QWORD PTR PMOSC$[rip]
	add	rax, 4
	mov	QWORD PTR PMOSC$[rip], rax
	nop
	pop	rbp
	ret
.L956:
	.seh_endproc
	.globl	UNWR
	.def	UNWR;	.scl	2;	.type	32;	.endef
	.seh_proc	UNWR
UNWR:
	push	rbp
	.seh_pushreg	rbp
	mov	rbp, rsp
	.seh_setframe	rbp, 0
	.seh_endprologue
.L958:
	mov	rax, QWORD PTR PMOSC$[rip]
	mov	edx, DWORD PTR IUNWR$[rip]
	mov	DWORD PTR [rax], edx
	mov	rax, QWORD PTR PMOSC$[rip]
	add	rax, 4
	mov	QWORD PTR PMOSC$[rip], rax
	nop
	pop	rbp
	ret
.L959:
	.seh_endproc
	.globl	UFWR
	.def	UFWR;	.scl	2;	.type	32;	.endef
	.seh_proc	UFWR
UFWR:
	push	rbp
	.seh_pushreg	rbp
	mov	rbp, rsp
	.seh_setframe	rbp, 0
	.seh_endprologue
.L961:
	mov	rax, QWORD PTR PMOSC$[rip]
	mov	edx, DWORD PTR IUFWR$[rip]
	mov	DWORD PTR [rax], edx
	mov	rax, QWORD PTR PMOSC$[rip]
	add	rax, 4
	mov	QWORD PTR PMOSC$[rip], rax
	nop
	pop	rbp
	ret
.L962:
	.seh_endproc
	.globl	UBWR
	.def	UBWR;	.scl	2;	.type	32;	.endef
	.seh_proc	UBWR
UBWR:
	push	rbp
	.seh_pushreg	rbp
	mov	rbp, rsp
	.seh_setframe	rbp, 0
	.seh_endprologue
.L964:
	mov	rax, QWORD PTR PMOSC$[rip]
	mov	edx, DWORD PTR IUBWR$[rip]
	mov	DWORD PTR [rax], edx
	mov	rax, QWORD PTR PMOSC$[rip]
	add	rax, 4
	mov	QWORD PTR PMOSC$[rip], rax
	nop
	pop	rbp
	ret
.L965:
	.seh_endproc
	.globl	UCWR
	.def	UCWR;	.scl	2;	.type	32;	.endef
	.seh_proc	UCWR
UCWR:
	push	rbp
	.seh_pushreg	rbp
	mov	rbp, rsp
	.seh_setframe	rbp, 0
	.seh_endprologue
.L967:
	mov	rax, QWORD PTR PMOSC$[rip]
	mov	edx, DWORD PTR IUCWR$[rip]
	mov	DWORD PTR [rax], edx
	mov	rax, QWORD PTR PMOSC$[rip]
	add	rax, 4
	mov	QWORD PTR PMOSC$[rip], rax
	nop
	pop	rbp
	ret
.L968:
	.seh_endproc
	.globl	UDWR
	.def	UDWR;	.scl	2;	.type	32;	.endef
	.seh_proc	UDWR
UDWR:
	push	rbp
	.seh_pushreg	rbp
	mov	rbp, rsp
	.seh_setframe	rbp, 0
	.seh_endprologue
.L970:
	mov	rax, QWORD PTR PMOSC$[rip]
	mov	edx, DWORD PTR IUDWR$[rip]
	mov	DWORD PTR [rax], edx
	mov	rax, QWORD PTR PMOSC$[rip]
	add	rax, 4
	mov	QWORD PTR PMOSC$[rip], rax
	nop
	pop	rbp
	ret
.L971:
	.seh_endproc
	.globl	UEWR
	.def	UEWR;	.scl	2;	.type	32;	.endef
	.seh_proc	UEWR
UEWR:
	push	rbp
	.seh_pushreg	rbp
	mov	rbp, rsp
	.seh_setframe	rbp, 0
	.seh_endprologue
.L973:
	mov	rax, QWORD PTR PMOSC$[rip]
	mov	edx, DWORD PTR IUEWR$[rip]
	mov	DWORD PTR [rax], edx
	mov	rax, QWORD PTR PMOSC$[rip]
	add	rax, 4
	mov	QWORD PTR PMOSC$[rip], rax
	nop
	pop	rbp
	ret
.L974:
	.seh_endproc
	.globl	UHWR
	.def	UHWR;	.scl	2;	.type	32;	.endef
	.seh_proc	UHWR
UHWR:
	push	rbp
	.seh_pushreg	rbp
	mov	rbp, rsp
	.seh_setframe	rbp, 0
	.seh_endprologue
.L976:
	mov	rax, QWORD PTR PMOSC$[rip]
	mov	edx, DWORD PTR IUHWR$[rip]
	mov	DWORD PTR [rax], edx
	mov	rax, QWORD PTR PMOSC$[rip]
	add	rax, 4
	mov	QWORD PTR PMOSC$[rip], rax
	nop
	pop	rbp
	ret
.L977:
	.seh_endproc
	.globl	ULWR
	.def	ULWR;	.scl	2;	.type	32;	.endef
	.seh_proc	ULWR
ULWR:
	push	rbp
	.seh_pushreg	rbp
	mov	rbp, rsp
	.seh_setframe	rbp, 0
	.seh_endprologue
.L979:
	mov	rax, QWORD PTR PMOSC$[rip]
	mov	edx, DWORD PTR IULWR$[rip]
	mov	DWORD PTR [rax], edx
	mov	rax, QWORD PTR PMOSC$[rip]
	add	rax, 4
	mov	QWORD PTR PMOSC$[rip], rax
	nop
	pop	rbp
	ret
.L980:
	.seh_endproc
	.globl	USLWR
	.def	USLWR;	.scl	2;	.type	32;	.endef
	.seh_proc	USLWR
USLWR:
	push	rbp
	.seh_pushreg	rbp
	mov	rbp, rsp
	.seh_setframe	rbp, 0
	.seh_endprologue
.L982:
	mov	rax, QWORD PTR PMOSC$[rip]
	mov	edx, DWORD PTR IUSLWR$[rip]
	mov	DWORD PTR [rax], edx
	mov	rax, QWORD PTR PMOSC$[rip]
	add	rax, 4
	mov	QWORD PTR PMOSC$[rip], rax
	nop
	pop	rbp
	ret
.L983:
	.seh_endproc
	.globl	USHWR
	.def	USHWR;	.scl	2;	.type	32;	.endef
	.seh_proc	USHWR
USHWR:
	push	rbp
	.seh_pushreg	rbp
	mov	rbp, rsp
	.seh_setframe	rbp, 0
	.seh_endprologue
.L985:
	mov	rax, QWORD PTR PMOSC$[rip]
	mov	edx, DWORD PTR IUSHWR$[rip]
	mov	DWORD PTR [rax], edx
	mov	rax, QWORD PTR PMOSC$[rip]
	add	rax, 4
	mov	QWORD PTR PMOSC$[rip], rax
	nop
	pop	rbp
	ret
.L986:
	.seh_endproc
	.globl	UPLWR
	.def	UPLWR;	.scl	2;	.type	32;	.endef
	.seh_proc	UPLWR
UPLWR:
	push	rbp
	.seh_pushreg	rbp
	mov	rbp, rsp
	.seh_setframe	rbp, 0
	.seh_endprologue
.L988:
	mov	rax, QWORD PTR PMOSC$[rip]
	mov	edx, DWORD PTR IUPLWR$[rip]
	mov	DWORD PTR [rax], edx
	mov	rax, QWORD PTR PMOSC$[rip]
	add	rax, 4
	mov	QWORD PTR PMOSC$[rip], rax
	nop
	pop	rbp
	ret
.L989:
	.seh_endproc
	.globl	UPHWR
	.def	UPHWR;	.scl	2;	.type	32;	.endef
	.seh_proc	UPHWR
UPHWR:
	push	rbp
	.seh_pushreg	rbp
	mov	rbp, rsp
	.seh_setframe	rbp, 0
	.seh_endprologue
.L991:
	mov	rax, QWORD PTR PMOSC$[rip]
	mov	edx, DWORD PTR IUPHWR$[rip]
	mov	DWORD PTR [rax], edx
	mov	rax, QWORD PTR PMOSC$[rip]
	add	rax, 4
	mov	QWORD PTR PMOSC$[rip], rax
	nop
	pop	rbp
	ret
.L992:
	.seh_endproc
	.globl	UXLWR
	.def	UXLWR;	.scl	2;	.type	32;	.endef
	.seh_proc	UXLWR
UXLWR:
	push	rbp
	.seh_pushreg	rbp
	mov	rbp, rsp
	.seh_setframe	rbp, 0
	.seh_endprologue
.L994:
	mov	rax, QWORD PTR PMOSC$[rip]
	mov	edx, DWORD PTR IUXLWR$[rip]
	mov	DWORD PTR [rax], edx
	mov	rax, QWORD PTR PMOSC$[rip]
	add	rax, 4
	mov	QWORD PTR PMOSC$[rip], rax
	nop
	pop	rbp
	ret
.L995:
	.seh_endproc
	.globl	UXHWR
	.def	UXHWR;	.scl	2;	.type	32;	.endef
	.seh_proc	UXHWR
UXHWR:
	push	rbp
	.seh_pushreg	rbp
	mov	rbp, rsp
	.seh_setframe	rbp, 0
	.seh_endprologue
.L997:
	mov	rax, QWORD PTR PMOSC$[rip]
	mov	edx, DWORD PTR IUXHWR$[rip]
	mov	DWORD PTR [rax], edx
	mov	rax, QWORD PTR PMOSC$[rip]
	add	rax, 4
	mov	QWORD PTR PMOSC$[rip], rax
	nop
	pop	rbp
	ret
.L998:
	.seh_endproc
	.globl	UYLWR
	.def	UYLWR;	.scl	2;	.type	32;	.endef
	.seh_proc	UYLWR
UYLWR:
	push	rbp
	.seh_pushreg	rbp
	mov	rbp, rsp
	.seh_setframe	rbp, 0
	.seh_endprologue
.L1000:
	mov	rax, QWORD PTR PMOSC$[rip]
	mov	edx, DWORD PTR IUYLWR$[rip]
	mov	DWORD PTR [rax], edx
	mov	rax, QWORD PTR PMOSC$[rip]
	add	rax, 4
	mov	QWORD PTR PMOSC$[rip], rax
	nop
	pop	rbp
	ret
.L1001:
	.seh_endproc
	.globl	UYHWR
	.def	UYHWR;	.scl	2;	.type	32;	.endef
	.seh_proc	UYHWR
UYHWR:
	push	rbp
	.seh_pushreg	rbp
	mov	rbp, rsp
	.seh_setframe	rbp, 0
	.seh_endprologue
.L1003:
	mov	rax, QWORD PTR PMOSC$[rip]
	mov	edx, DWORD PTR IUYHWR$[rip]
	mov	DWORD PTR [rax], edx
	mov	rax, QWORD PTR PMOSC$[rip]
	add	rax, 4
	mov	QWORD PTR PMOSC$[rip], rax
	nop
	pop	rbp
	ret
.L1004:
	.seh_endproc
	.globl	UOINCL
	.def	UOINCL;	.scl	2;	.type	32;	.endef
	.seh_proc	UOINCL
UOINCL:
	push	rbp
	.seh_pushreg	rbp
	mov	rbp, rsp
	.seh_setframe	rbp, 0
	.seh_endprologue
.L1006:
	mov	rax, QWORD PTR PMOSC$[rip]
	mov	edx, DWORD PTR IUOINC$[rip]
	mov	DWORD PTR [rax], edx
	mov	rax, QWORD PTR PMOSC$[rip]
	add	rax, 4
	mov	QWORD PTR PMOSC$[rip], rax
	nop
	pop	rbp
	ret
.L1007:
	.seh_endproc
	.globl	UODECL
	.def	UODECL;	.scl	2;	.type	32;	.endef
	.seh_proc	UODECL
UODECL:
	push	rbp
	.seh_pushreg	rbp
	mov	rbp, rsp
	.seh_setframe	rbp, 0
	.seh_endprologue
.L1009:
	mov	rax, QWORD PTR PMOSC$[rip]
	mov	edx, DWORD PTR IUODEC$[rip]
	mov	DWORD PTR [rax], edx
	mov	rax, QWORD PTR PMOSC$[rip]
	add	rax, 4
	mov	QWORD PTR PMOSC$[rip], rax
	nop
	pop	rbp
	ret
.L1010:
	.seh_endproc
	.globl	UORLCL
	.def	UORLCL;	.scl	2;	.type	32;	.endef
	.seh_proc	UORLCL
UORLCL:
	push	rbp
	.seh_pushreg	rbp
	mov	rbp, rsp
	.seh_setframe	rbp, 0
	.seh_endprologue
.L1012:
	mov	rax, QWORD PTR PMOSC$[rip]
	mov	edx, DWORD PTR IUORLC$[rip]
	mov	DWORD PTR [rax], edx
	mov	rax, QWORD PTR PMOSC$[rip]
	add	rax, 4
	mov	QWORD PTR PMOSC$[rip], rax
	nop
	pop	rbp
	ret
.L1013:
	.seh_endproc
	.globl	UORRCL
	.def	UORRCL;	.scl	2;	.type	32;	.endef
	.seh_proc	UORRCL
UORRCL:
	push	rbp
	.seh_pushreg	rbp
	mov	rbp, rsp
	.seh_setframe	rbp, 0
	.seh_endprologue
.L1015:
	mov	rax, QWORD PTR PMOSC$[rip]
	mov	edx, DWORD PTR IUORRC$[rip]
	mov	DWORD PTR [rax], edx
	mov	rax, QWORD PTR PMOSC$[rip]
	add	rax, 4
	mov	QWORD PTR PMOSC$[rip], rax
	nop
	pop	rbp
	ret
.L1016:
	.seh_endproc
	.globl	UORLL
	.def	UORLL;	.scl	2;	.type	32;	.endef
	.seh_proc	UORLL
UORLL:
	push	rbp
	.seh_pushreg	rbp
	mov	rbp, rsp
	.seh_setframe	rbp, 0
	.seh_endprologue
.L1018:
	mov	rax, QWORD PTR PMOSC$[rip]
	mov	edx, DWORD PTR IUORL$[rip]
	mov	DWORD PTR [rax], edx
	mov	rax, QWORD PTR PMOSC$[rip]
	add	rax, 4
	mov	QWORD PTR PMOSC$[rip], rax
	nop
	pop	rbp
	ret
.L1019:
	.seh_endproc
	.globl	UORRL
	.def	UORRL;	.scl	2;	.type	32;	.endef
	.seh_proc	UORRL
UORRL:
	push	rbp
	.seh_pushreg	rbp
	mov	rbp, rsp
	.seh_setframe	rbp, 0
	.seh_endprologue
.L1021:
	mov	rax, QWORD PTR PMOSC$[rip]
	mov	edx, DWORD PTR IUORR$[rip]
	mov	DWORD PTR [rax], edx
	mov	rax, QWORD PTR PMOSC$[rip]
	add	rax, 4
	mov	QWORD PTR PMOSC$[rip], rax
	nop
	pop	rbp
	ret
.L1022:
	.seh_endproc
	.globl	UOSLAL
	.def	UOSLAL;	.scl	2;	.type	32;	.endef
	.seh_proc	UOSLAL
UOSLAL:
	push	rbp
	.seh_pushreg	rbp
	mov	rbp, rsp
	.seh_setframe	rbp, 0
	.seh_endprologue
.L1024:
	mov	rax, QWORD PTR PMOSC$[rip]
	mov	edx, DWORD PTR IUOSLA$[rip]
	mov	DWORD PTR [rax], edx
	mov	rax, QWORD PTR PMOSC$[rip]
	add	rax, 4
	mov	QWORD PTR PMOSC$[rip], rax
	nop
	pop	rbp
	ret
.L1025:
	.seh_endproc
	.globl	UOSRAL
	.def	UOSRAL;	.scl	2;	.type	32;	.endef
	.seh_proc	UOSRAL
UOSRAL:
	push	rbp
	.seh_pushreg	rbp
	mov	rbp, rsp
	.seh_setframe	rbp, 0
	.seh_endprologue
.L1027:
	mov	rax, QWORD PTR PMOSC$[rip]
	mov	edx, DWORD PTR IUOSRA$[rip]
	mov	DWORD PTR [rax], edx
	mov	rax, QWORD PTR PMOSC$[rip]
	add	rax, 4
	mov	QWORD PTR PMOSC$[rip], rax
	nop
	pop	rbp
	ret
.L1028:
	.seh_endproc
	.globl	UOSRLL
	.def	UOSRLL;	.scl	2;	.type	32;	.endef
	.seh_proc	UOSRLL
UOSRLL:
	push	rbp
	.seh_pushreg	rbp
	mov	rbp, rsp
	.seh_setframe	rbp, 0
	.seh_endprologue
.L1030:
	mov	rax, QWORD PTR PMOSC$[rip]
	mov	edx, DWORD PTR IUOSRL$[rip]
	mov	DWORD PTR [rax], edx
	mov	rax, QWORD PTR PMOSC$[rip]
	add	rax, 4
	mov	QWORD PTR PMOSC$[rip], rax
	nop
	pop	rbp
	ret
.L1031:
	.seh_endproc
	.globl	UOSLLL
	.def	UOSLLL;	.scl	2;	.type	32;	.endef
	.seh_proc	UOSLLL
UOSLLL:
	push	rbp
	.seh_pushreg	rbp
	mov	rbp, rsp
	.seh_setframe	rbp, 0
	.seh_endprologue
.L1033:
	mov	rax, QWORD PTR PMOSC$[rip]
	mov	edx, DWORD PTR IUOSLL$[rip]
	mov	DWORD PTR [rax], edx
	mov	rax, QWORD PTR PMOSC$[rip]
	add	rax, 4
	mov	QWORD PTR PMOSC$[rip], rax
	nop
	pop	rbp
	ret
.L1034:
	.seh_endproc
	.globl	UONEGL
	.def	UONEGL;	.scl	2;	.type	32;	.endef
	.seh_proc	UONEGL
UONEGL:
	push	rbp
	.seh_pushreg	rbp
	mov	rbp, rsp
	.seh_setframe	rbp, 0
	.seh_endprologue
.L1036:
	mov	rax, QWORD PTR PMOSC$[rip]
	mov	edx, DWORD PTR IUONEG$[rip]
	mov	DWORD PTR [rax], edx
	mov	rax, QWORD PTR PMOSC$[rip]
	add	rax, 4
	mov	QWORD PTR PMOSC$[rip], rax
	nop
	pop	rbp
	ret
.L1037:
	.seh_endproc
	.globl	UODAAL
	.def	UODAAL;	.scl	2;	.type	32;	.endef
	.seh_proc	UODAAL
UODAAL:
	push	rbp
	.seh_pushreg	rbp
	mov	rbp, rsp
	.seh_setframe	rbp, 0
	.seh_endprologue
.L1039:
	mov	rax, QWORD PTR PMOSC$[rip]
	mov	edx, DWORD PTR IUODAA$[rip]
	mov	DWORD PTR [rax], edx
	mov	rax, QWORD PTR PMOSC$[rip]
	add	rax, 4
	mov	QWORD PTR PMOSC$[rip], rax
	nop
	pop	rbp
	ret
.L1040:
	.seh_endproc
	.globl	UOCPLL
	.def	UOCPLL;	.scl	2;	.type	32;	.endef
	.seh_proc	UOCPLL
UOCPLL:
	push	rbp
	.seh_pushreg	rbp
	mov	rbp, rsp
	.seh_setframe	rbp, 0
	.seh_endprologue
.L1042:
	mov	rax, QWORD PTR PMOSC$[rip]
	mov	edx, DWORD PTR IUOCPL$[rip]
	mov	DWORD PTR [rax], edx
	mov	rax, QWORD PTR PMOSC$[rip]
	add	rax, 4
	mov	QWORD PTR PMOSC$[rip], rax
	nop
	pop	rbp
	ret
.L1043:
	.seh_endproc
	.globl	UOSCFL
	.def	UOSCFL;	.scl	2;	.type	32;	.endef
	.seh_proc	UOSCFL
UOSCFL:
	push	rbp
	.seh_pushreg	rbp
	mov	rbp, rsp
	.seh_setframe	rbp, 0
	.seh_endprologue
.L1045:
	mov	rax, QWORD PTR PMOSC$[rip]
	mov	edx, DWORD PTR IUOSCF$[rip]
	mov	DWORD PTR [rax], edx
	mov	rax, QWORD PTR PMOSC$[rip]
	add	rax, 4
	mov	QWORD PTR PMOSC$[rip], rax
	nop
	pop	rbp
	ret
.L1046:
	.seh_endproc
	.globl	UOCCFL
	.def	UOCCFL;	.scl	2;	.type	32;	.endef
	.seh_proc	UOCCFL
UOCCFL:
	push	rbp
	.seh_pushreg	rbp
	mov	rbp, rsp
	.seh_setframe	rbp, 0
	.seh_endprologue
.L1048:
	mov	rax, QWORD PTR PMOSC$[rip]
	mov	edx, DWORD PTR IUOCCF$[rip]
	mov	DWORD PTR [rax], edx
	mov	rax, QWORD PTR PMOSC$[rip]
	add	rax, 4
	mov	QWORD PTR PMOSC$[rip], rax
	nop
	pop	rbp
	ret
.L1049:
	.seh_endproc
	.globl	UOBITL
	.def	UOBITL;	.scl	2;	.type	32;	.endef
	.seh_proc	UOBITL
UOBITL:
	push	rbp
	.seh_pushreg	rbp
	mov	rbp, rsp
	.seh_setframe	rbp, 0
	.seh_endprologue
.L1051:
	mov	rax, QWORD PTR PMOSC$[rip]
	mov	edx, DWORD PTR IUOBIT$[rip]
	mov	DWORD PTR [rax], edx
	mov	rax, QWORD PTR PMOSC$[rip]
	add	rax, 4
	mov	QWORD PTR PMOSC$[rip], rax
	nop
	pop	rbp
	ret
.L1052:
	.seh_endproc
	.globl	UOSETL
	.def	UOSETL;	.scl	2;	.type	32;	.endef
	.seh_proc	UOSETL
UOSETL:
	push	rbp
	.seh_pushreg	rbp
	mov	rbp, rsp
	.seh_setframe	rbp, 0
	.seh_endprologue
.L1054:
	mov	rax, QWORD PTR PMOSC$[rip]
	mov	edx, DWORD PTR IUOSET$[rip]
	mov	DWORD PTR [rax], edx
	mov	rax, QWORD PTR PMOSC$[rip]
	add	rax, 4
	mov	QWORD PTR PMOSC$[rip], rax
	nop
	pop	rbp
	ret
.L1055:
	.seh_endproc
	.globl	UORESL
	.def	UORESL;	.scl	2;	.type	32;	.endef
	.seh_proc	UORESL
UORESL:
	push	rbp
	.seh_pushreg	rbp
	mov	rbp, rsp
	.seh_setframe	rbp, 0
	.seh_endprologue
.L1057:
	mov	rax, QWORD PTR PMOSC$[rip]
	mov	edx, DWORD PTR IUORES$[rip]
	mov	DWORD PTR [rax], edx
	mov	rax, QWORD PTR PMOSC$[rip]
	add	rax, 4
	mov	QWORD PTR PMOSC$[rip], rax
	nop
	pop	rbp
	ret
.L1058:
	.seh_endproc
	.globl	ULRADD
	.def	ULRADD;	.scl	2;	.type	32;	.endef
	.seh_proc	ULRADD
ULRADD:
	push	rbp
	.seh_pushreg	rbp
	mov	rbp, rsp
	.seh_setframe	rbp, 0
	.seh_endprologue
	mov	DWORD PTR 16[rbp], ecx
.L1060:
	mov	eax, DWORD PTR IULBADD$[rip]
	mov	edx, eax
	mov	eax, DWORD PTR 16[rbp]
	sub	edx, eax
	mov	eax, edx
	lea	edx, 7[rax]
	mov	rax, QWORD PTR PMOSC$[rip]
	mov	DWORD PTR [rax], edx
	mov	rax, QWORD PTR PMOSC$[rip]
	add	rax, 4
	mov	QWORD PTR PMOSC$[rip], rax
	nop
	pop	rbp
	ret
.L1061:
	.seh_endproc
	.globl	ULRADC
	.def	ULRADC;	.scl	2;	.type	32;	.endef
	.seh_proc	ULRADC
ULRADC:
	push	rbp
	.seh_pushreg	rbp
	mov	rbp, rsp
	.seh_setframe	rbp, 0
	.seh_endprologue
	mov	DWORD PTR 16[rbp], ecx
.L1063:
	mov	eax, DWORD PTR IULBADC$[rip]
	mov	edx, eax
	mov	eax, DWORD PTR 16[rbp]
	sub	edx, eax
	mov	eax, edx
	lea	edx, 7[rax]
	mov	rax, QWORD PTR PMOSC$[rip]
	mov	DWORD PTR [rax], edx
	mov	rax, QWORD PTR PMOSC$[rip]
	add	rax, 4
	mov	QWORD PTR PMOSC$[rip], rax
	nop
	pop	rbp
	ret
.L1064:
	.seh_endproc
	.globl	ULRSUB
	.def	ULRSUB;	.scl	2;	.type	32;	.endef
	.seh_proc	ULRSUB
ULRSUB:
	push	rbp
	.seh_pushreg	rbp
	mov	rbp, rsp
	.seh_setframe	rbp, 0
	.seh_endprologue
	mov	DWORD PTR 16[rbp], ecx
.L1066:
	mov	eax, DWORD PTR IULBSUB$[rip]
	mov	edx, eax
	mov	eax, DWORD PTR 16[rbp]
	sub	edx, eax
	mov	eax, edx
	lea	edx, 7[rax]
	mov	rax, QWORD PTR PMOSC$[rip]
	mov	DWORD PTR [rax], edx
	mov	rax, QWORD PTR PMOSC$[rip]
	add	rax, 4
	mov	QWORD PTR PMOSC$[rip], rax
	nop
	pop	rbp
	ret
.L1067:
	.seh_endproc
	.globl	ULRSBC
	.def	ULRSBC;	.scl	2;	.type	32;	.endef
	.seh_proc	ULRSBC
ULRSBC:
	push	rbp
	.seh_pushreg	rbp
	mov	rbp, rsp
	.seh_setframe	rbp, 0
	.seh_endprologue
	mov	DWORD PTR 16[rbp], ecx
.L1069:
	mov	eax, DWORD PTR IULBSBC$[rip]
	mov	edx, eax
	mov	eax, DWORD PTR 16[rbp]
	sub	edx, eax
	mov	eax, edx
	lea	edx, 7[rax]
	mov	rax, QWORD PTR PMOSC$[rip]
	mov	DWORD PTR [rax], edx
	mov	rax, QWORD PTR PMOSC$[rip]
	add	rax, 4
	mov	QWORD PTR PMOSC$[rip], rax
	nop
	pop	rbp
	ret
.L1070:
	.seh_endproc
	.globl	ULRXOR
	.def	ULRXOR;	.scl	2;	.type	32;	.endef
	.seh_proc	ULRXOR
ULRXOR:
	push	rbp
	.seh_pushreg	rbp
	mov	rbp, rsp
	.seh_setframe	rbp, 0
	.seh_endprologue
	mov	DWORD PTR 16[rbp], ecx
.L1072:
	mov	eax, DWORD PTR IULBXOR$[rip]
	mov	edx, eax
	mov	eax, DWORD PTR 16[rbp]
	sub	edx, eax
	mov	eax, edx
	lea	edx, 7[rax]
	mov	rax, QWORD PTR PMOSC$[rip]
	mov	DWORD PTR [rax], edx
	mov	rax, QWORD PTR PMOSC$[rip]
	add	rax, 4
	mov	QWORD PTR PMOSC$[rip], rax
	nop
	pop	rbp
	ret
.L1073:
	.seh_endproc
	.globl	ULRAND
	.def	ULRAND;	.scl	2;	.type	32;	.endef
	.seh_proc	ULRAND
ULRAND:
	push	rbp
	.seh_pushreg	rbp
	mov	rbp, rsp
	.seh_setframe	rbp, 0
	.seh_endprologue
	mov	DWORD PTR 16[rbp], ecx
.L1075:
	mov	eax, DWORD PTR IULBAND$[rip]
	mov	edx, eax
	mov	eax, DWORD PTR 16[rbp]
	sub	edx, eax
	mov	eax, edx
	lea	edx, 7[rax]
	mov	rax, QWORD PTR PMOSC$[rip]
	mov	DWORD PTR [rax], edx
	mov	rax, QWORD PTR PMOSC$[rip]
	add	rax, 4
	mov	QWORD PTR PMOSC$[rip], rax
	nop
	pop	rbp
	ret
.L1076:
	.seh_endproc
	.globl	ULROR
	.def	ULROR;	.scl	2;	.type	32;	.endef
	.seh_proc	ULROR
ULROR:
	push	rbp
	.seh_pushreg	rbp
	mov	rbp, rsp
	.seh_setframe	rbp, 0
	.seh_endprologue
	mov	DWORD PTR 16[rbp], ecx
.L1078:
	mov	eax, DWORD PTR IULBOR$[rip]
	mov	edx, eax
	mov	eax, DWORD PTR 16[rbp]
	sub	edx, eax
	mov	eax, edx
	lea	edx, 7[rax]
	mov	rax, QWORD PTR PMOSC$[rip]
	mov	DWORD PTR [rax], edx
	mov	rax, QWORD PTR PMOSC$[rip]
	add	rax, 4
	mov	QWORD PTR PMOSC$[rip], rax
	nop
	pop	rbp
	ret
.L1079:
	.seh_endproc
	.globl	ULRCP
	.def	ULRCP;	.scl	2;	.type	32;	.endef
	.seh_proc	ULRCP
ULRCP:
	push	rbp
	.seh_pushreg	rbp
	mov	rbp, rsp
	.seh_setframe	rbp, 0
	.seh_endprologue
	mov	DWORD PTR 16[rbp], ecx
.L1081:
	mov	eax, DWORD PTR IULBCP$[rip]
	mov	edx, eax
	mov	eax, DWORD PTR 16[rbp]
	sub	edx, eax
	mov	eax, edx
	lea	edx, 7[rax]
	mov	rax, QWORD PTR PMOSC$[rip]
	mov	DWORD PTR [rax], edx
	mov	rax, QWORD PTR PMOSC$[rip]
	add	rax, 4
	mov	QWORD PTR PMOSC$[rip], rax
	nop
	pop	rbp
	ret
.L1082:
	.seh_endproc
	.globl	ULTADD
	.def	ULTADD;	.scl	2;	.type	32;	.endef
	.seh_proc	ULTADD
ULTADD:
	push	rbp
	.seh_pushreg	rbp
	mov	rbp, rsp
	.seh_setframe	rbp, 0
	.seh_endprologue
.L1084:
	mov	rax, QWORD PTR PMOSC$[rip]
	mov	edx, DWORD PTR IULTADD$[rip]
	mov	DWORD PTR [rax], edx
	mov	rax, QWORD PTR PMOSC$[rip]
	add	rax, 4
	mov	QWORD PTR PMOSC$[rip], rax
	nop
	pop	rbp
	ret
.L1085:
	.seh_endproc
	.globl	ULTADC
	.def	ULTADC;	.scl	2;	.type	32;	.endef
	.seh_proc	ULTADC
ULTADC:
	push	rbp
	.seh_pushreg	rbp
	mov	rbp, rsp
	.seh_setframe	rbp, 0
	.seh_endprologue
.L1087:
	mov	rax, QWORD PTR PMOSC$[rip]
	mov	edx, DWORD PTR IULTADC$[rip]
	mov	DWORD PTR [rax], edx
	mov	rax, QWORD PTR PMOSC$[rip]
	add	rax, 4
	mov	QWORD PTR PMOSC$[rip], rax
	nop
	pop	rbp
	ret
.L1088:
	.seh_endproc
	.globl	ULTSUB
	.def	ULTSUB;	.scl	2;	.type	32;	.endef
	.seh_proc	ULTSUB
ULTSUB:
	push	rbp
	.seh_pushreg	rbp
	mov	rbp, rsp
	.seh_setframe	rbp, 0
	.seh_endprologue
.L1090:
	mov	rax, QWORD PTR PMOSC$[rip]
	mov	edx, DWORD PTR IULTSUB$[rip]
	mov	DWORD PTR [rax], edx
	mov	rax, QWORD PTR PMOSC$[rip]
	add	rax, 4
	mov	QWORD PTR PMOSC$[rip], rax
	nop
	pop	rbp
	ret
.L1091:
	.seh_endproc
	.globl	ULTSBC
	.def	ULTSBC;	.scl	2;	.type	32;	.endef
	.seh_proc	ULTSBC
ULTSBC:
	push	rbp
	.seh_pushreg	rbp
	mov	rbp, rsp
	.seh_setframe	rbp, 0
	.seh_endprologue
.L1093:
	mov	rax, QWORD PTR PMOSC$[rip]
	mov	edx, DWORD PTR IULTSBC$[rip]
	mov	DWORD PTR [rax], edx
	mov	rax, QWORD PTR PMOSC$[rip]
	add	rax, 4
	mov	QWORD PTR PMOSC$[rip], rax
	nop
	pop	rbp
	ret
.L1094:
	.seh_endproc
	.globl	ULTXOR
	.def	ULTXOR;	.scl	2;	.type	32;	.endef
	.seh_proc	ULTXOR
ULTXOR:
	push	rbp
	.seh_pushreg	rbp
	mov	rbp, rsp
	.seh_setframe	rbp, 0
	.seh_endprologue
.L1096:
	mov	rax, QWORD PTR PMOSC$[rip]
	mov	edx, DWORD PTR IULTXOR$[rip]
	mov	DWORD PTR [rax], edx
	mov	rax, QWORD PTR PMOSC$[rip]
	add	rax, 4
	mov	QWORD PTR PMOSC$[rip], rax
	nop
	pop	rbp
	ret
.L1097:
	.seh_endproc
	.globl	ULTAND
	.def	ULTAND;	.scl	2;	.type	32;	.endef
	.seh_proc	ULTAND
ULTAND:
	push	rbp
	.seh_pushreg	rbp
	mov	rbp, rsp
	.seh_setframe	rbp, 0
	.seh_endprologue
.L1099:
	mov	rax, QWORD PTR PMOSC$[rip]
	mov	edx, DWORD PTR IULTAND$[rip]
	mov	DWORD PTR [rax], edx
	mov	rax, QWORD PTR PMOSC$[rip]
	add	rax, 4
	mov	QWORD PTR PMOSC$[rip], rax
	nop
	pop	rbp
	ret
.L1100:
	.seh_endproc
	.globl	ULTOR
	.def	ULTOR;	.scl	2;	.type	32;	.endef
	.seh_proc	ULTOR
ULTOR:
	push	rbp
	.seh_pushreg	rbp
	mov	rbp, rsp
	.seh_setframe	rbp, 0
	.seh_endprologue
.L1102:
	mov	rax, QWORD PTR PMOSC$[rip]
	mov	edx, DWORD PTR IULTOR$[rip]
	mov	DWORD PTR [rax], edx
	mov	rax, QWORD PTR PMOSC$[rip]
	add	rax, 4
	mov	QWORD PTR PMOSC$[rip], rax
	nop
	pop	rbp
	ret
.L1103:
	.seh_endproc
	.globl	ULTCP
	.def	ULTCP;	.scl	2;	.type	32;	.endef
	.seh_proc	ULTCP
ULTCP:
	push	rbp
	.seh_pushreg	rbp
	mov	rbp, rsp
	.seh_setframe	rbp, 0
	.seh_endprologue
.L1105:
	mov	rax, QWORD PTR PMOSC$[rip]
	mov	edx, DWORD PTR IULTCP$[rip]
	mov	DWORD PTR [rax], edx
	mov	rax, QWORD PTR PMOSC$[rip]
	add	rax, 4
	mov	QWORD PTR PMOSC$[rip], rax
	nop
	pop	rbp
	ret
.L1106:
	.seh_endproc
	.globl	ULXADD
	.def	ULXADD;	.scl	2;	.type	32;	.endef
	.seh_proc	ULXADD
ULXADD:
	push	rbp
	.seh_pushreg	rbp
	mov	rbp, rsp
	.seh_setframe	rbp, 0
	.seh_endprologue
	mov	DWORD PTR 16[rbp], ecx
.L1108:
	mov	eax, DWORD PTR IULXSADD$[rip]
	mov	edx, eax
	mov	eax, DWORD PTR 16[rbp]
	sub	edx, eax
	mov	eax, edx
	lea	edx, 5[rax]
	mov	rax, QWORD PTR PMOSC$[rip]
	mov	DWORD PTR [rax], edx
	mov	rax, QWORD PTR PMOSC$[rip]
	add	rax, 4
	mov	QWORD PTR PMOSC$[rip], rax
	nop
	pop	rbp
	ret
.L1109:
	.seh_endproc
	.globl	ULXADC
	.def	ULXADC;	.scl	2;	.type	32;	.endef
	.seh_proc	ULXADC
ULXADC:
	push	rbp
	.seh_pushreg	rbp
	mov	rbp, rsp
	.seh_setframe	rbp, 0
	.seh_endprologue
	mov	DWORD PTR 16[rbp], ecx
.L1111:
	mov	eax, DWORD PTR IULXSADC$[rip]
	mov	edx, eax
	mov	eax, DWORD PTR 16[rbp]
	sub	edx, eax
	mov	eax, edx
	lea	edx, 5[rax]
	mov	rax, QWORD PTR PMOSC$[rip]
	mov	DWORD PTR [rax], edx
	mov	rax, QWORD PTR PMOSC$[rip]
	add	rax, 4
	mov	QWORD PTR PMOSC$[rip], rax
	nop
	pop	rbp
	ret
.L1112:
	.seh_endproc
	.globl	ULXSUB
	.def	ULXSUB;	.scl	2;	.type	32;	.endef
	.seh_proc	ULXSUB
ULXSUB:
	push	rbp
	.seh_pushreg	rbp
	mov	rbp, rsp
	.seh_setframe	rbp, 0
	.seh_endprologue
	mov	DWORD PTR 16[rbp], ecx
.L1114:
	mov	eax, DWORD PTR IULXSSUB$[rip]
	mov	edx, eax
	mov	eax, DWORD PTR 16[rbp]
	sub	edx, eax
	mov	eax, edx
	lea	edx, 5[rax]
	mov	rax, QWORD PTR PMOSC$[rip]
	mov	DWORD PTR [rax], edx
	mov	rax, QWORD PTR PMOSC$[rip]
	add	rax, 4
	mov	QWORD PTR PMOSC$[rip], rax
	nop
	pop	rbp
	ret
.L1115:
	.seh_endproc
	.globl	ULXSBC
	.def	ULXSBC;	.scl	2;	.type	32;	.endef
	.seh_proc	ULXSBC
ULXSBC:
	push	rbp
	.seh_pushreg	rbp
	mov	rbp, rsp
	.seh_setframe	rbp, 0
	.seh_endprologue
	mov	DWORD PTR 16[rbp], ecx
.L1117:
	mov	eax, DWORD PTR IULXSSBC$[rip]
	mov	edx, eax
	mov	eax, DWORD PTR 16[rbp]
	sub	edx, eax
	mov	eax, edx
	lea	edx, 5[rax]
	mov	rax, QWORD PTR PMOSC$[rip]
	mov	DWORD PTR [rax], edx
	mov	rax, QWORD PTR PMOSC$[rip]
	add	rax, 4
	mov	QWORD PTR PMOSC$[rip], rax
	nop
	pop	rbp
	ret
.L1118:
	.seh_endproc
	.globl	ULXXOR
	.def	ULXXOR;	.scl	2;	.type	32;	.endef
	.seh_proc	ULXXOR
ULXXOR:
	push	rbp
	.seh_pushreg	rbp
	mov	rbp, rsp
	.seh_setframe	rbp, 0
	.seh_endprologue
	mov	DWORD PTR 16[rbp], ecx
.L1120:
	mov	eax, DWORD PTR IULXSXOR$[rip]
	mov	edx, eax
	mov	eax, DWORD PTR 16[rbp]
	sub	edx, eax
	mov	eax, edx
	lea	edx, 5[rax]
	mov	rax, QWORD PTR PMOSC$[rip]
	mov	DWORD PTR [rax], edx
	mov	rax, QWORD PTR PMOSC$[rip]
	add	rax, 4
	mov	QWORD PTR PMOSC$[rip], rax
	nop
	pop	rbp
	ret
.L1121:
	.seh_endproc
	.globl	ULXAND
	.def	ULXAND;	.scl	2;	.type	32;	.endef
	.seh_proc	ULXAND
ULXAND:
	push	rbp
	.seh_pushreg	rbp
	mov	rbp, rsp
	.seh_setframe	rbp, 0
	.seh_endprologue
	mov	DWORD PTR 16[rbp], ecx
.L1123:
	mov	eax, DWORD PTR IULXSAND$[rip]
	mov	edx, eax
	mov	eax, DWORD PTR 16[rbp]
	sub	edx, eax
	mov	eax, edx
	lea	edx, 5[rax]
	mov	rax, QWORD PTR PMOSC$[rip]
	mov	DWORD PTR [rax], edx
	mov	rax, QWORD PTR PMOSC$[rip]
	add	rax, 4
	mov	QWORD PTR PMOSC$[rip], rax
	nop
	pop	rbp
	ret
.L1124:
	.seh_endproc
	.globl	ULXOR
	.def	ULXOR;	.scl	2;	.type	32;	.endef
	.seh_proc	ULXOR
ULXOR:
	push	rbp
	.seh_pushreg	rbp
	mov	rbp, rsp
	.seh_setframe	rbp, 0
	.seh_endprologue
	mov	DWORD PTR 16[rbp], ecx
.L1126:
	mov	eax, DWORD PTR IULXSOR$[rip]
	mov	edx, eax
	mov	eax, DWORD PTR 16[rbp]
	sub	edx, eax
	mov	eax, edx
	lea	edx, 5[rax]
	mov	rax, QWORD PTR PMOSC$[rip]
	mov	DWORD PTR [rax], edx
	mov	rax, QWORD PTR PMOSC$[rip]
	add	rax, 4
	mov	QWORD PTR PMOSC$[rip], rax
	nop
	pop	rbp
	ret
.L1127:
	.seh_endproc
	.globl	ULXCP
	.def	ULXCP;	.scl	2;	.type	32;	.endef
	.seh_proc	ULXCP
ULXCP:
	push	rbp
	.seh_pushreg	rbp
	mov	rbp, rsp
	.seh_setframe	rbp, 0
	.seh_endprologue
	mov	DWORD PTR 16[rbp], ecx
.L1129:
	mov	eax, DWORD PTR IULXSCP$[rip]
	mov	edx, eax
	mov	eax, DWORD PTR 16[rbp]
	sub	edx, eax
	mov	eax, edx
	lea	edx, 5[rax]
	mov	rax, QWORD PTR PMOSC$[rip]
	mov	DWORD PTR [rax], edx
	mov	rax, QWORD PTR PMOSC$[rip]
	add	rax, 4
	mov	QWORD PTR PMOSC$[rip], rax
	nop
	pop	rbp
	ret
.L1130:
	.seh_endproc
	.globl	UPFXDD
	.def	UPFXDD;	.scl	2;	.type	32;	.endef
	.seh_proc	UPFXDD
UPFXDD:
	push	rbp
	.seh_pushreg	rbp
	mov	rbp, rsp
	.seh_setframe	rbp, 0
	.seh_endprologue
.L1132:
	mov	rax, QWORD PTR PMOSC$[rip]
	mov	edx, DWORD PTR IUPFXDD$[rip]
	mov	DWORD PTR [rax], edx
	mov	rax, QWORD PTR PMOSC$[rip]
	add	rax, 4
	mov	QWORD PTR PMOSC$[rip], rax
	nop
	pop	rbp
	ret
.L1133:
	.seh_endproc
	.globl	UPFXFD
	.def	UPFXFD;	.scl	2;	.type	32;	.endef
	.seh_proc	UPFXFD
UPFXFD:
	push	rbp
	.seh_pushreg	rbp
	mov	rbp, rsp
	.seh_setframe	rbp, 0
	.seh_endprologue
.L1135:
	mov	rax, QWORD PTR PMOSC$[rip]
	mov	edx, DWORD PTR IUPFXFD$[rip]
	mov	DWORD PTR [rax], edx
	mov	rax, QWORD PTR PMOSC$[rip]
	add	rax, 4
	mov	QWORD PTR PMOSC$[rip], rax
	nop
	pop	rbp
	ret
.L1136:
	.seh_endproc
	.globl	UPFXCB
	.def	UPFXCB;	.scl	2;	.type	32;	.endef
	.seh_proc	UPFXCB
UPFXCB:
	push	rbp
	.seh_pushreg	rbp
	mov	rbp, rsp
	.seh_setframe	rbp, 0
	.seh_endprologue
.L1138:
	mov	rax, QWORD PTR PMOSC$[rip]
	mov	edx, DWORD PTR IUPFXCB$[rip]
	mov	DWORD PTR [rax], edx
	mov	rax, QWORD PTR PMOSC$[rip]
	add	rax, 4
	mov	QWORD PTR PMOSC$[rip], rax
	nop
	pop	rbp
	ret
.L1139:
	.seh_endproc
	.globl	UPFXED
	.def	UPFXED;	.scl	2;	.type	32;	.endef
	.seh_proc	UPFXED
UPFXED:
	push	rbp
	.seh_pushreg	rbp
	mov	rbp, rsp
	.seh_setframe	rbp, 0
	.seh_endprologue
.L1141:
	mov	rax, QWORD PTR PMOSC$[rip]
	mov	edx, DWORD PTR IUPFXED$[rip]
	mov	DWORD PTR [rax], edx
	mov	rax, QWORD PTR PMOSC$[rip]
	add	rax, 4
	mov	QWORD PTR PMOSC$[rip], rax
	nop
	pop	rbp
	ret
.L1142:
	.seh_endproc
	.globl	UPFXDC
	.def	UPFXDC;	.scl	2;	.type	32;	.endef
	.seh_proc	UPFXDC
UPFXDC:
	push	rbp
	.seh_pushreg	rbp
	mov	rbp, rsp
	.seh_setframe	rbp, 0
	.seh_endprologue
.L1144:
	mov	rax, QWORD PTR PMOSC$[rip]
	mov	edx, DWORD PTR IUPFXDC$[rip]
	mov	DWORD PTR [rax], edx
	mov	rax, QWORD PTR PMOSC$[rip]
	add	rax, 4
	mov	QWORD PTR PMOSC$[rip], rax
	nop
	pop	rbp
	ret
.L1145:
	.seh_endproc
	.globl	UPFXFC
	.def	UPFXFC;	.scl	2;	.type	32;	.endef
	.seh_proc	UPFXFC
UPFXFC:
	push	rbp
	.seh_pushreg	rbp
	mov	rbp, rsp
	.seh_setframe	rbp, 0
	.seh_endprologue
.L1147:
	mov	rax, QWORD PTR PMOSC$[rip]
	mov	edx, DWORD PTR IUPFXFC$[rip]
	mov	DWORD PTR [rax], edx
	mov	rax, QWORD PTR PMOSC$[rip]
	add	rax, 4
	mov	QWORD PTR PMOSC$[rip], rax
	nop
	pop	rbp
	ret
.L1148:
	.seh_endproc
	.globl	USEWZ
	.def	USEWZ;	.scl	2;	.type	32;	.endef
	.seh_proc	USEWZ
USEWZ:
	push	rbp
	.seh_pushreg	rbp
	mov	rbp, rsp
	.seh_setframe	rbp, 0
	.seh_endprologue
.L1150:
	mov	rax, QWORD PTR PMOSC$[rip]
	mov	edx, DWORD PTR SIGUWZ$[rip]
	mov	DWORD PTR [rax], edx
	mov	rax, QWORD PTR PMOSC$[rip]
	add	rax, 4
	mov	QWORD PTR PMOSC$[rip], rax
	nop
	pop	rbp
	ret
.L1151:
	.seh_endproc
	.globl	USEHL
	.def	USEHL;	.scl	2;	.type	32;	.endef
	.seh_proc	USEHL
USEHL:
	push	rbp
	.seh_pushreg	rbp
	mov	rbp, rsp
	.seh_setframe	rbp, 0
	.seh_endprologue
.L1153:
	mov	rax, QWORD PTR PMOSC$[rip]
	mov	edx, DWORD PTR SIGUHL$[rip]
	mov	DWORD PTR [rax], edx
	mov	rax, QWORD PTR PMOSC$[rip]
	add	rax, 4
	mov	QWORD PTR PMOSC$[rip], rax
	nop
	pop	rbp
	ret
.L1154:
	.seh_endproc
	.globl	USEIX
	.def	USEIX;	.scl	2;	.type	32;	.endef
	.seh_proc	USEIX
USEIX:
	push	rbp
	.seh_pushreg	rbp
	mov	rbp, rsp
	.seh_setframe	rbp, 0
	.seh_endprologue
.L1156:
	mov	rax, QWORD PTR PMOSC$[rip]
	mov	edx, DWORD PTR SIGUIX$[rip]
	mov	DWORD PTR [rax], edx
	mov	rax, QWORD PTR PMOSC$[rip]
	add	rax, 4
	mov	QWORD PTR PMOSC$[rip], rax
	nop
	pop	rbp
	ret
.L1157:
	.seh_endproc
	.globl	USEIY
	.def	USEIY;	.scl	2;	.type	32;	.endef
	.seh_proc	USEIY
USEIY:
	push	rbp
	.seh_pushreg	rbp
	mov	rbp, rsp
	.seh_setframe	rbp, 0
	.seh_endprologue
.L1159:
	mov	rax, QWORD PTR PMOSC$[rip]
	mov	edx, DWORD PTR SIGUIY$[rip]
	mov	DWORD PTR [rax], edx
	mov	rax, QWORD PTR PMOSC$[rip]
	add	rax, 4
	mov	QWORD PTR PMOSC$[rip], rax
	nop
	pop	rbp
	ret
.L1160:
	.seh_endproc
	.globl	SKIP6PE
	.def	SKIP6PE;	.scl	2;	.type	32;	.endef
	.seh_proc	SKIP6PE
SKIP6PE:
	push	rbp
	.seh_pushreg	rbp
	mov	rbp, rsp
	.seh_setframe	rbp, 0
	.seh_endprologue
.L1162:
	mov	rax, QWORD PTR PMOSC$[rip]
	mov	edx, DWORD PTR SIGSK6$[rip]
	mov	DWORD PTR [rax], edx
	mov	rax, QWORD PTR PMOSC$[rip]
	add	rax, 4
	mov	QWORD PTR PMOSC$[rip], rax
	nop
	pop	rbp
	ret
.L1163:
	.seh_endproc
	.globl	SKIP6PEZ
	.def	SKIP6PEZ;	.scl	2;	.type	32;	.endef
	.seh_proc	SKIP6PEZ
SKIP6PEZ:
	push	rbp
	.seh_pushreg	rbp
	mov	rbp, rsp
	.seh_setframe	rbp, 0
	.seh_endprologue
.L1165:
	mov	rax, QWORD PTR PMOSC$[rip]
	mov	edx, DWORD PTR SIGSK6Z$[rip]
	mov	DWORD PTR [rax], edx
	mov	rax, QWORD PTR PMOSC$[rip]
	add	rax, 4
	mov	QWORD PTR PMOSC$[rip], rax
	nop
	pop	rbp
	ret
.L1166:
	.seh_endproc
	.globl	SKIP6Z
	.def	SKIP6Z;	.scl	2;	.type	32;	.endef
	.seh_proc	SKIP6Z
SKIP6Z:
	push	rbp
	.seh_pushreg	rbp
	mov	rbp, rsp
	.seh_setframe	rbp, 0
	.seh_endprologue
.L1168:
	mov	rax, QWORD PTR PMOSC$[rip]
	mov	edx, DWORD PTR ISKIP6Z$[rip]
	mov	DWORD PTR [rax], edx
	mov	rax, QWORD PTR PMOSC$[rip]
	add	rax, 4
	mov	QWORD PTR PMOSC$[rip], rax
	nop
	pop	rbp
	ret
.L1169:
	.seh_endproc
	.globl	ECCZ
	.def	ECCZ;	.scl	2;	.type	32;	.endef
	.seh_proc	ECCZ
ECCZ:
	push	rbp
	.seh_pushreg	rbp
	mov	rbp, rsp
	.seh_setframe	rbp, 0
	.seh_endprologue
.L1171:
	mov	rax, QWORD PTR PMOSC$[rip]
	mov	edx, DWORD PTR IECCZ$[rip]
	mov	DWORD PTR [rax], edx
	mov	rax, QWORD PTR PMOSC$[rip]
	add	rax, 4
	mov	QWORD PTR PMOSC$[rip], rax
	nop
	pop	rbp
	ret
.L1172:
	.seh_endproc
	.globl	ECCNZ
	.def	ECCNZ;	.scl	2;	.type	32;	.endef
	.seh_proc	ECCNZ
ECCNZ:
	push	rbp
	.seh_pushreg	rbp
	mov	rbp, rsp
	.seh_setframe	rbp, 0
	.seh_endprologue
.L1174:
	mov	rax, QWORD PTR PMOSC$[rip]
	mov	edx, DWORD PTR IECCNZ$[rip]
	mov	DWORD PTR [rax], edx
	mov	rax, QWORD PTR PMOSC$[rip]
	add	rax, 4
	mov	QWORD PTR PMOSC$[rip], rax
	nop
	pop	rbp
	ret
.L1175:
	.seh_endproc
	.globl	ECCC
	.def	ECCC;	.scl	2;	.type	32;	.endef
	.seh_proc	ECCC
ECCC:
	push	rbp
	.seh_pushreg	rbp
	mov	rbp, rsp
	.seh_setframe	rbp, 0
	.seh_endprologue
.L1177:
	mov	rax, QWORD PTR PMOSC$[rip]
	mov	edx, DWORD PTR IECCC$[rip]
	mov	DWORD PTR [rax], edx
	mov	rax, QWORD PTR PMOSC$[rip]
	add	rax, 4
	mov	QWORD PTR PMOSC$[rip], rax
	nop
	pop	rbp
	ret
.L1178:
	.seh_endproc
	.globl	ECCNC
	.def	ECCNC;	.scl	2;	.type	32;	.endef
	.seh_proc	ECCNC
ECCNC:
	push	rbp
	.seh_pushreg	rbp
	mov	rbp, rsp
	.seh_setframe	rbp, 0
	.seh_endprologue
.L1180:
	mov	rax, QWORD PTR PMOSC$[rip]
	mov	edx, DWORD PTR IECCNC$[rip]
	mov	DWORD PTR [rax], edx
	mov	rax, QWORD PTR PMOSC$[rip]
	add	rax, 4
	mov	QWORD PTR PMOSC$[rip], rax
	nop
	pop	rbp
	ret
.L1181:
	.seh_endproc
	.globl	ECCPE
	.def	ECCPE;	.scl	2;	.type	32;	.endef
	.seh_proc	ECCPE
ECCPE:
	push	rbp
	.seh_pushreg	rbp
	mov	rbp, rsp
	.seh_setframe	rbp, 0
	.seh_endprologue
.L1183:
	mov	rax, QWORD PTR PMOSC$[rip]
	mov	edx, DWORD PTR IECCPE$[rip]
	mov	DWORD PTR [rax], edx
	mov	rax, QWORD PTR PMOSC$[rip]
	add	rax, 4
	mov	QWORD PTR PMOSC$[rip], rax
	nop
	pop	rbp
	ret
.L1184:
	.seh_endproc
	.globl	ECCPO
	.def	ECCPO;	.scl	2;	.type	32;	.endef
	.seh_proc	ECCPO
ECCPO:
	push	rbp
	.seh_pushreg	rbp
	mov	rbp, rsp
	.seh_setframe	rbp, 0
	.seh_endprologue
.L1186:
	mov	rax, QWORD PTR PMOSC$[rip]
	mov	edx, DWORD PTR IECCPO$[rip]
	mov	DWORD PTR [rax], edx
	mov	rax, QWORD PTR PMOSC$[rip]
	add	rax, 4
	mov	QWORD PTR PMOSC$[rip], rax
	nop
	pop	rbp
	ret
.L1187:
	.seh_endproc
	.globl	ECCM
	.def	ECCM;	.scl	2;	.type	32;	.endef
	.seh_proc	ECCM
ECCM:
	push	rbp
	.seh_pushreg	rbp
	mov	rbp, rsp
	.seh_setframe	rbp, 0
	.seh_endprologue
.L1189:
	mov	rax, QWORD PTR PMOSC$[rip]
	mov	edx, DWORD PTR IECCM$[rip]
	mov	DWORD PTR [rax], edx
	mov	rax, QWORD PTR PMOSC$[rip]
	add	rax, 4
	mov	QWORD PTR PMOSC$[rip], rax
	nop
	pop	rbp
	ret
.L1190:
	.seh_endproc
	.globl	ECCP
	.def	ECCP;	.scl	2;	.type	32;	.endef
	.seh_proc	ECCP
ECCP:
	push	rbp
	.seh_pushreg	rbp
	mov	rbp, rsp
	.seh_setframe	rbp, 0
	.seh_endprologue
.L1192:
	mov	rax, QWORD PTR PMOSC$[rip]
	mov	edx, DWORD PTR IECCP$[rip]
	mov	DWORD PTR [rax], edx
	mov	rax, QWORD PTR PMOSC$[rip]
	add	rax, 4
	mov	QWORD PTR PMOSC$[rip], rax
	nop
	pop	rbp
	ret
.L1193:
	.seh_endproc
	.globl	SWCCNZ
	.def	SWCCNZ;	.scl	2;	.type	32;	.endef
	.seh_proc	SWCCNZ
SWCCNZ:
	push	rbp
	.seh_pushreg	rbp
	mov	rbp, rsp
	.seh_setframe	rbp, 0
	.seh_endprologue
.L1195:
	mov	rax, QWORD PTR PMOSC$[rip]
	mov	edx, DWORD PTR ISWCCNZ$[rip]
	mov	DWORD PTR [rax], edx
	mov	rax, QWORD PTR PMOSC$[rip]
	add	rax, 4
	mov	QWORD PTR PMOSC$[rip], rax
	nop
	pop	rbp
	ret
.L1196:
	.seh_endproc
	.globl	SWCCZ
	.def	SWCCZ;	.scl	2;	.type	32;	.endef
	.seh_proc	SWCCZ
SWCCZ:
	push	rbp
	.seh_pushreg	rbp
	mov	rbp, rsp
	.seh_setframe	rbp, 0
	.seh_endprologue
.L1198:
	mov	rax, QWORD PTR PMOSC$[rip]
	mov	edx, DWORD PTR ISWCCZ$[rip]
	mov	DWORD PTR [rax], edx
	mov	rax, QWORD PTR PMOSC$[rip]
	add	rax, 4
	mov	QWORD PTR PMOSC$[rip], rax
	nop
	pop	rbp
	ret
.L1199:
	.seh_endproc
	.globl	SWCCNC
	.def	SWCCNC;	.scl	2;	.type	32;	.endef
	.seh_proc	SWCCNC
SWCCNC:
	push	rbp
	.seh_pushreg	rbp
	mov	rbp, rsp
	.seh_setframe	rbp, 0
	.seh_endprologue
.L1201:
	mov	rax, QWORD PTR PMOSC$[rip]
	mov	edx, DWORD PTR ISWCCNC$[rip]
	mov	DWORD PTR [rax], edx
	mov	rax, QWORD PTR PMOSC$[rip]
	add	rax, 4
	mov	QWORD PTR PMOSC$[rip], rax
	nop
	pop	rbp
	ret
.L1202:
	.seh_endproc
	.globl	SWCCC
	.def	SWCCC;	.scl	2;	.type	32;	.endef
	.seh_proc	SWCCC
SWCCC:
	push	rbp
	.seh_pushreg	rbp
	mov	rbp, rsp
	.seh_setframe	rbp, 0
	.seh_endprologue
.L1204:
	mov	rax, QWORD PTR PMOSC$[rip]
	mov	edx, DWORD PTR ISWCCC$[rip]
	mov	DWORD PTR [rax], edx
	mov	rax, QWORD PTR PMOSC$[rip]
	add	rax, 4
	mov	QWORD PTR PMOSC$[rip], rax
	nop
	pop	rbp
	ret
.L1205:
	.seh_endproc
	.globl	SWCCPE
	.def	SWCCPE;	.scl	2;	.type	32;	.endef
	.seh_proc	SWCCPE
SWCCPE:
	push	rbp
	.seh_pushreg	rbp
	mov	rbp, rsp
	.seh_setframe	rbp, 0
	.seh_endprologue
.L1207:
	mov	rax, QWORD PTR PMOSC$[rip]
	mov	edx, DWORD PTR ISWCCPE$[rip]
	mov	DWORD PTR [rax], edx
	mov	rax, QWORD PTR PMOSC$[rip]
	add	rax, 4
	mov	QWORD PTR PMOSC$[rip], rax
	nop
	pop	rbp
	ret
.L1208:
	.seh_endproc
	.globl	SWCCPO
	.def	SWCCPO;	.scl	2;	.type	32;	.endef
	.seh_proc	SWCCPO
SWCCPO:
	push	rbp
	.seh_pushreg	rbp
	mov	rbp, rsp
	.seh_setframe	rbp, 0
	.seh_endprologue
.L1210:
	mov	rax, QWORD PTR PMOSC$[rip]
	mov	edx, DWORD PTR ISWCCPO$[rip]
	mov	DWORD PTR [rax], edx
	mov	rax, QWORD PTR PMOSC$[rip]
	add	rax, 4
	mov	QWORD PTR PMOSC$[rip], rax
	nop
	pop	rbp
	ret
.L1211:
	.seh_endproc
	.globl	SWCCP
	.def	SWCCP;	.scl	2;	.type	32;	.endef
	.seh_proc	SWCCP
SWCCP:
	push	rbp
	.seh_pushreg	rbp
	mov	rbp, rsp
	.seh_setframe	rbp, 0
	.seh_endprologue
.L1213:
	mov	rax, QWORD PTR PMOSC$[rip]
	mov	edx, DWORD PTR ISWCCP$[rip]
	mov	DWORD PTR [rax], edx
	mov	rax, QWORD PTR PMOSC$[rip]
	add	rax, 4
	mov	QWORD PTR PMOSC$[rip], rax
	nop
	pop	rbp
	ret
.L1214:
	.seh_endproc
	.globl	SWCCM
	.def	SWCCM;	.scl	2;	.type	32;	.endef
	.seh_proc	SWCCM
SWCCM:
	push	rbp
	.seh_pushreg	rbp
	mov	rbp, rsp
	.seh_setframe	rbp, 0
	.seh_endprologue
.L1216:
	mov	rax, QWORD PTR PMOSC$[rip]
	mov	edx, DWORD PTR ISWCCM$[rip]
	mov	DWORD PTR [rax], edx
	mov	rax, QWORD PTR PMOSC$[rip]
	add	rax, 4
	mov	QWORD PTR PMOSC$[rip], rax
	nop
	pop	rbp
	ret
.L1217:
	.seh_endproc
	.globl	HERE
	.def	HERE;	.scl	2;	.type	32;	.endef
	.seh_proc	HERE
HERE:
	push	rbp
	.seh_pushreg	rbp
	mov	rbp, rsp
	.seh_setframe	rbp, 0
	.seh_endprologue
.L1219:
	mov	rax, QWORD PTR PMOSC$[rip]
	mov	edx, DWORD PTR UHERE$[rip]
	mov	DWORD PTR [rax], edx
	mov	rax, QWORD PTR PMOSC$[rip]
	add	rax, 4
	mov	QWORD PTR PMOSC$[rip], rax
	nop
	pop	rbp
	ret
.L1220:
	.seh_endproc
	.globl	UNDEF
	.def	UNDEF;	.scl	2;	.type	32;	.endef
	.seh_proc	UNDEF
UNDEF:
	push	rbp
	.seh_pushreg	rbp
	mov	rbp, rsp
	.seh_setframe	rbp, 0
	.seh_endprologue
.L1222:
	mov	rax, QWORD PTR PMOSC$[rip]
	mov	edx, DWORD PTR UUNDEF$[rip]
	mov	DWORD PTR [rax], edx
	mov	rax, QWORD PTR PMOSC$[rip]
	add	rax, 4
	mov	QWORD PTR PMOSC$[rip], rax
	nop
	pop	rbp
	ret
.L1223:
	.seh_endproc
	.globl	UADIMHN
	.def	UADIMHN;	.scl	2;	.type	32;	.endef
	.seh_proc	UADIMHN
UADIMHN:
	push	rbp
	.seh_pushreg	rbp
	mov	rbp, rsp
	.seh_setframe	rbp, 0
	.seh_endprologue
.L1225:
	mov	rax, QWORD PTR PMOSC$[rip]
	mov	edx, DWORD PTR UUADIMHN$[rip]
	mov	DWORD PTR [rax], edx
	mov	rax, QWORD PTR PMOSC$[rip]
	add	rax, 4
	mov	QWORD PTR PMOSC$[rip], rax
	nop
	pop	rbp
	ret
.L1226:
	.seh_endproc
	.globl	UPASW
	.def	UPASW;	.scl	2;	.type	32;	.endef
	.seh_proc	UPASW
UPASW:
	push	rbp
	.seh_pushreg	rbp
	mov	rbp, rsp
	.seh_setframe	rbp, 0
	.seh_endprologue
.L1228:
	mov	rax, QWORD PTR PMOSC$[rip]
	mov	edx, DWORD PTR UUPASW$[rip]
	mov	DWORD PTR [rax], edx
	mov	rax, QWORD PTR PMOSC$[rip]
	add	rax, 4
	mov	QWORD PTR PMOSC$[rip], rax
	nop
	pop	rbp
	ret
.L1229:
	.seh_endproc
	.globl	ULAT
	.def	ULAT;	.scl	2;	.type	32;	.endef
	.seh_proc	ULAT
ULAT:
	push	rbp
	.seh_pushreg	rbp
	mov	rbp, rsp
	.seh_setframe	rbp, 0
	.seh_endprologue
.L1231:
	mov	rax, QWORD PTR PMOSC$[rip]
	mov	edx, DWORD PTR UULAT$[rip]
	mov	DWORD PTR [rax], edx
	mov	rax, QWORD PTR PMOSC$[rip]
	add	rax, 4
	mov	QWORD PTR PMOSC$[rip], rax
	nop
	pop	rbp
	ret
.L1232:
	.seh_endproc
	.globl	UEXMAIR
	.def	UEXMAIR;	.scl	2;	.type	32;	.endef
	.seh_proc	UEXMAIR
UEXMAIR:
	push	rbp
	.seh_pushreg	rbp
	mov	rbp, rsp
	.seh_setframe	rbp, 0
	.seh_endprologue
.L1234:
	mov	rax, QWORD PTR PMOSC$[rip]
	mov	edx, DWORD PTR UUEXMAIR$[rip]
	mov	DWORD PTR [rax], edx
	mov	rax, QWORD PTR PMOSC$[rip]
	add	rax, 4
	mov	QWORD PTR PMOSC$[rip], rax
	nop
	pop	rbp
	ret
.L1235:
	.seh_endproc
	.globl	UADIRM
	.def	UADIRM;	.scl	2;	.type	32;	.endef
	.seh_proc	UADIRM
UADIRM:
	push	rbp
	.seh_pushreg	rbp
	mov	rbp, rsp
	.seh_setframe	rbp, 0
	.seh_endprologue
.L1237:
	mov	rax, QWORD PTR PMOSC$[rip]
	mov	edx, DWORD PTR UUADIRM$[rip]
	mov	DWORD PTR [rax], edx
	mov	rax, QWORD PTR PMOSC$[rip]
	add	rax, 4
	mov	QWORD PTR PMOSC$[rip], rax
	nop
	pop	rbp
	ret
.L1238:
	.seh_endproc
	.globl	UIRFABG
	.def	UIRFABG;	.scl	2;	.type	32;	.endef
	.seh_proc	UIRFABG
UIRFABG:
	push	rbp
	.seh_pushreg	rbp
	mov	rbp, rsp
	.seh_setframe	rbp, 0
	.seh_endprologue
.L1240:
	mov	rax, QWORD PTR PMOSC$[rip]
	mov	edx, DWORD PTR UUIRFABG$[rip]
	mov	DWORD PTR [rax], edx
	mov	rax, QWORD PTR PMOSC$[rip]
	add	rax, 4
	mov	QWORD PTR PMOSC$[rip], rax
	nop
	pop	rbp
	ret
.L1241:
	.seh_endproc
	.globl	UIRFAB
	.def	UIRFAB;	.scl	2;	.type	32;	.endef
	.seh_proc	UIRFAB
UIRFAB:
	push	rbp
	.seh_pushreg	rbp
	mov	rbp, rsp
	.seh_setframe	rbp, 0
	.seh_endprologue
.L1243:
	mov	rax, QWORD PTR PMOSC$[rip]
	mov	edx, DWORD PTR UUIRFAB$[rip]
	mov	DWORD PTR [rax], edx
	mov	rax, QWORD PTR PMOSC$[rip]
	add	rax, 4
	mov	QWORD PTR PMOSC$[rip], rax
	nop
	pop	rbp
	ret
.L1244:
	.seh_endproc
	.globl	UGINT
	.def	UGINT;	.scl	2;	.type	32;	.endef
	.seh_proc	UGINT
UGINT:
	push	rbp
	.seh_pushreg	rbp
	mov	rbp, rsp
	.seh_setframe	rbp, 0
	.seh_endprologue
.L1246:
	mov	rax, QWORD PTR PMOSC$[rip]
	mov	edx, DWORD PTR UUGINT$[rip]
	mov	DWORD PTR [rax], edx
	mov	rax, QWORD PTR PMOSC$[rip]
	add	rax, 4
	mov	QWORD PTR PMOSC$[rip], rax
	nop
	pop	rbp
	ret
.L1247:
	.seh_endproc
	.globl	UGINTH
	.def	UGINTH;	.scl	2;	.type	32;	.endef
	.seh_proc	UGINTH
UGINTH:
	push	rbp
	.seh_pushreg	rbp
	mov	rbp, rsp
	.seh_setframe	rbp, 0
	.seh_endprologue
.L1249:
	mov	rax, QWORD PTR PMOSC$[rip]
	mov	edx, DWORD PTR UUGINTH$[rip]
	mov	DWORD PTR [rax], edx
	mov	rax, QWORD PTR PMOSC$[rip]
	add	rax, 4
	mov	QWORD PTR PMOSC$[rip], rax
	nop
	pop	rbp
	ret
.L1250:
	.seh_endproc
	.globl	UHDMRG
	.def	UHDMRG;	.scl	2;	.type	32;	.endef
	.seh_proc	UHDMRG
UHDMRG:
	push	rbp
	.seh_pushreg	rbp
	mov	rbp, rsp
	.seh_setframe	rbp, 0
	.seh_endprologue
.L1252:
	mov	rax, QWORD PTR PMOSC$[rip]
	mov	edx, DWORD PTR UUHDMRG$[rip]
	mov	DWORD PTR [rax], edx
	mov	rax, QWORD PTR PMOSC$[rip]
	add	rax, 4
	mov	QWORD PTR PMOSC$[rip], rax
	nop
	pop	rbp
	ret
.L1253:
	.seh_endproc
	.globl	DONE
	.def	DONE;	.scl	2;	.type	32;	.endef
	.seh_proc	DONE
DONE:
	push	rbp
	.seh_pushreg	rbp
	mov	rbp, rsp
	.seh_setframe	rbp, 0
	.seh_endprologue
.L1255:
	mov	rax, QWORD PTR PMOSC$[rip]
	mov	edx, DWORD PTR UDONE$[rip]
	mov	DWORD PTR [rax], edx
	mov	rax, QWORD PTR PMOSC$[rip]
	add	rax, 4
	mov	QWORD PTR PMOSC$[rip], rax
	nop
	pop	rbp
	ret
.L1256:
	.seh_endproc
	.globl	EXT
	.def	EXT;	.scl	2;	.type	32;	.endef
	.seh_proc	EXT
EXT:
	push	rbp
	.seh_pushreg	rbp
	mov	rbp, rsp
	.seh_setframe	rbp, 0
	.seh_endprologue
.L1258:
	mov	rax, QWORD PTR PMOSC$[rip]
	mov	edx, DWORD PTR UEXT$[rip]
	mov	DWORD PTR [rax], edx
	mov	rax, QWORD PTR PMOSC$[rip]
	add	rax, 4
	mov	QWORD PTR PMOSC$[rip], rax
	nop
	pop	rbp
	ret
.L1259:
	.seh_endproc
	.globl	XEND
	.def	XEND;	.scl	2;	.type	32;	.endef
	.seh_proc	XEND
XEND:
	push	rbp
	.seh_pushreg	rbp
	mov	rbp, rsp
	.seh_setframe	rbp, 0
	.seh_endprologue
.L1261:
	mov	rax, QWORD PTR PMOSC$[rip]
	mov	edx, DWORD PTR UXEND$[rip]
	mov	DWORD PTR [rax], edx
	mov	rax, QWORD PTR PMOSC$[rip]
	add	rax, 4
	mov	QWORD PTR PMOSC$[rip], rax
	nop
	pop	rbp
	ret
.L1262:
	.seh_endproc
	.globl	PAR
	.def	PAR;	.scl	2;	.type	32;	.endef
	.seh_proc	PAR
PAR:
	push	rbp
	.seh_pushreg	rbp
	mov	rbp, rsp
	.seh_setframe	rbp, 0
	.seh_endprologue
.L1264:
	mov	rax, QWORD PTR PMOSC$[rip]
	mov	edx, DWORD PTR UPAR$[rip]
	mov	DWORD PTR [rax], edx
	mov	rax, QWORD PTR PMOSC$[rip]
	add	rax, 4
	mov	QWORD PTR PMOSC$[rip], rax
	nop
	pop	rbp
	ret
.L1265:
	.seh_endproc
	.globl	TRI
	.def	TRI;	.scl	2;	.type	32;	.endef
	.seh_proc	TRI
TRI:
	push	rbp
	.seh_pushreg	rbp
	mov	rbp, rsp
	.seh_setframe	rbp, 0
	.seh_endprologue
.L1267:
	mov	rax, QWORD PTR PMOSC$[rip]
	mov	edx, DWORD PTR UTRI$[rip]
	mov	DWORD PTR [rax], edx
	mov	rax, QWORD PTR PMOSC$[rip]
	add	rax, 4
	mov	QWORD PTR PMOSC$[rip], rax
	nop
	pop	rbp
	ret
.L1268:
	.seh_endproc
	.globl	UDPC
	.def	UDPC;	.scl	2;	.type	32;	.endef
	.seh_proc	UDPC
UDPC:
	push	rbp
	.seh_pushreg	rbp
	mov	rbp, rsp
	.seh_setframe	rbp, 0
	.seh_endprologue
.L1270:
	mov	rax, QWORD PTR PMOSC$[rip]
	mov	edx, DWORD PTR UUDPC$[rip]
	mov	DWORD PTR [rax], edx
	mov	rax, QWORD PTR PMOSC$[rip]
	add	rax, 4
	mov	QWORD PTR PMOSC$[rip], rax
	nop
	pop	rbp
	ret
.L1271:
	.seh_endproc
	.globl	UADIMR
	.def	UADIMR;	.scl	2;	.type	32;	.endef
	.seh_proc	UADIMR
UADIMR:
	push	rbp
	.seh_pushreg	rbp
	mov	rbp, rsp
	.seh_setframe	rbp, 0
	.seh_endprologue
.L1273:
	mov	rax, QWORD PTR PMOSC$[rip]
	mov	edx, DWORD PTR UUADIMR$[rip]
	mov	DWORD PTR [rax], edx
	mov	rax, QWORD PTR PMOSC$[rip]
	add	rax, 4
	mov	QWORD PTR PMOSC$[rip], rax
	nop
	pop	rbp
	ret
.L1274:
	.seh_endproc
	.globl	UPSSW
	.def	UPSSW;	.scl	2;	.type	32;	.endef
	.seh_proc	UPSSW
UPSSW:
	push	rbp
	.seh_pushreg	rbp
	mov	rbp, rsp
	.seh_setframe	rbp, 0
	.seh_endprologue
.L1276:
	mov	rax, QWORD PTR PMOSC$[rip]
	mov	edx, DWORD PTR UUPSSW$[rip]
	mov	DWORD PTR [rax], edx
	mov	rax, QWORD PTR PMOSC$[rip]
	add	rax, 4
	mov	QWORD PTR PMOSC$[rip], rax
	nop
	pop	rbp
	ret
.L1277:
	.seh_endproc
	.globl	UDPBRQ
	.def	UDPBRQ;	.scl	2;	.type	32;	.endef
	.seh_proc	UDPBRQ
UDPBRQ:
	push	rbp
	.seh_pushreg	rbp
	mov	rbp, rsp
	.seh_setframe	rbp, 0
	.seh_endprologue
.L1279:
	mov	rax, QWORD PTR PMOSC$[rip]
	mov	edx, DWORD PTR UUDPBRQ$[rip]
	mov	DWORD PTR [rax], edx
	mov	rax, QWORD PTR PMOSC$[rip]
	add	rax, 4
	mov	QWORD PTR PMOSC$[rip], rax
	nop
	pop	rbp
	ret
.L1280:
	.seh_endproc
	.globl	UHDMR
	.def	UHDMR;	.scl	2;	.type	32;	.endef
	.seh_proc	UHDMR
UHDMR:
	push	rbp
	.seh_pushreg	rbp
	mov	rbp, rsp
	.seh_setframe	rbp, 0
	.seh_endprologue
.L1282:
	mov	rax, QWORD PTR PMOSC$[rip]
	mov	edx, DWORD PTR UUHDMR$[rip]
	mov	DWORD PTR [rax], edx
	mov	rax, QWORD PTR PMOSC$[rip]
	add	rax, 4
	mov	QWORD PTR PMOSC$[rip], rax
	nop
	pop	rbp
	ret
.L1283:
	.seh_endproc
	.globl	UHDMRIG
	.def	UHDMRIG;	.scl	2;	.type	32;	.endef
	.seh_proc	UHDMRIG
UHDMRIG:
	push	rbp
	.seh_pushreg	rbp
	mov	rbp, rsp
	.seh_setframe	rbp, 0
	.seh_endprologue
.L1285:
	mov	rax, QWORD PTR PMOSC$[rip]
	mov	edx, DWORD PTR UUHDMRIG$[rip]
	mov	DWORD PTR [rax], edx
	mov	rax, QWORD PTR PMOSC$[rip]
	add	rax, 4
	mov	QWORD PTR PMOSC$[rip], rax
	nop
	pop	rbp
	ret
.L1286:
	.seh_endproc
	.globl	UADM
	.def	UADM;	.scl	2;	.type	32;	.endef
	.seh_proc	UADM
UADM:
	push	rbp
	.seh_pushreg	rbp
	mov	rbp, rsp
	.seh_setframe	rbp, 0
	.seh_endprologue
.L1288:
	mov	rax, QWORD PTR PMOSC$[rip]
	mov	edx, DWORD PTR UUADM$[rip]
	mov	DWORD PTR [rax], edx
	mov	rax, QWORD PTR PMOSC$[rip]
	add	rax, 4
	mov	QWORD PTR PMOSC$[rip], rax
	nop
	pop	rbp
	ret
.L1289:
	.seh_endproc
	.globl	UDPBRQG
	.def	UDPBRQG;	.scl	2;	.type	32;	.endef
	.seh_proc	UDPBRQG
UDPBRQG:
	push	rbp
	.seh_pushreg	rbp
	mov	rbp, rsp
	.seh_setframe	rbp, 0
	.seh_endprologue
.L1291:
	mov	rax, QWORD PTR PMOSC$[rip]
	mov	edx, DWORD PTR UUDPBRQG$[rip]
	mov	DWORD PTR [rax], edx
	mov	rax, QWORD PTR PMOSC$[rip]
	add	rax, 4
	mov	QWORD PTR PMOSC$[rip], rax
	nop
	pop	rbp
	ret
.L1292:
	.seh_endproc
	.globl	URFLB
	.def	URFLB;	.scl	2;	.type	32;	.endef
	.seh_proc	URFLB
URFLB:
	push	rbp
	.seh_pushreg	rbp
	mov	rbp, rsp
	.seh_setframe	rbp, 0
	.seh_endprologue
.L1294:
	mov	rax, QWORD PTR PMOSC$[rip]
	mov	edx, DWORD PTR UURFLB$[rip]
	mov	DWORD PTR [rax], edx
	mov	rax, QWORD PTR PMOSC$[rip]
	add	rax, 4
	mov	QWORD PTR PMOSC$[rip], rax
	nop
	pop	rbp
	ret
.L1295:
	.seh_endproc
	.globl	URAHB
	.def	URAHB;	.scl	2;	.type	32;	.endef
	.seh_proc	URAHB
URAHB:
	push	rbp
	.seh_pushreg	rbp
	mov	rbp, rsp
	.seh_setframe	rbp, 0
	.seh_endprologue
.L1297:
	mov	rax, QWORD PTR PMOSC$[rip]
	mov	edx, DWORD PTR UURAHB$[rip]
	mov	DWORD PTR [rax], edx
	mov	rax, QWORD PTR PMOSC$[rip]
	add	rax, 4
	mov	QWORD PTR PMOSC$[rip], rax
	nop
	pop	rbp
	ret
.L1298:
	.seh_endproc
	.globl	URCLB
	.def	URCLB;	.scl	2;	.type	32;	.endef
	.seh_proc	URCLB
URCLB:
	push	rbp
	.seh_pushreg	rbp
	mov	rbp, rsp
	.seh_setframe	rbp, 0
	.seh_endprologue
.L1300:
	mov	rax, QWORD PTR PMOSC$[rip]
	mov	edx, DWORD PTR UURCLB$[rip]
	mov	DWORD PTR [rax], edx
	mov	rax, QWORD PTR PMOSC$[rip]
	add	rax, 4
	mov	QWORD PTR PMOSC$[rip], rax
	nop
	pop	rbp
	ret
.L1301:
	.seh_endproc
	.globl	URBHB
	.def	URBHB;	.scl	2;	.type	32;	.endef
	.seh_proc	URBHB
URBHB:
	push	rbp
	.seh_pushreg	rbp
	mov	rbp, rsp
	.seh_setframe	rbp, 0
	.seh_endprologue
.L1303:
	mov	rax, QWORD PTR PMOSC$[rip]
	mov	edx, DWORD PTR UURBHB$[rip]
	mov	DWORD PTR [rax], edx
	mov	rax, QWORD PTR PMOSC$[rip]
	add	rax, 4
	mov	QWORD PTR PMOSC$[rip], rax
	nop
	pop	rbp
	ret
.L1304:
	.seh_endproc
	.globl	URELB
	.def	URELB;	.scl	2;	.type	32;	.endef
	.seh_proc	URELB
URELB:
	push	rbp
	.seh_pushreg	rbp
	mov	rbp, rsp
	.seh_setframe	rbp, 0
	.seh_endprologue
.L1306:
	mov	rax, QWORD PTR PMOSC$[rip]
	mov	edx, DWORD PTR UURELB$[rip]
	mov	DWORD PTR [rax], edx
	mov	rax, QWORD PTR PMOSC$[rip]
	add	rax, 4
	mov	QWORD PTR PMOSC$[rip], rax
	nop
	pop	rbp
	ret
.L1307:
	.seh_endproc
	.globl	URDHB
	.def	URDHB;	.scl	2;	.type	32;	.endef
	.seh_proc	URDHB
URDHB:
	push	rbp
	.seh_pushreg	rbp
	mov	rbp, rsp
	.seh_setframe	rbp, 0
	.seh_endprologue
.L1309:
	mov	rax, QWORD PTR PMOSC$[rip]
	mov	edx, DWORD PTR UURDHB$[rip]
	mov	DWORD PTR [rax], edx
	mov	rax, QWORD PTR PMOSC$[rip]
	add	rax, 4
	mov	QWORD PTR PMOSC$[rip], rax
	nop
	pop	rbp
	ret
.L1310:
	.seh_endproc
	.globl	URLLB
	.def	URLLB;	.scl	2;	.type	32;	.endef
	.seh_proc	URLLB
URLLB:
	push	rbp
	.seh_pushreg	rbp
	mov	rbp, rsp
	.seh_setframe	rbp, 0
	.seh_endprologue
.L1312:
	mov	rax, QWORD PTR PMOSC$[rip]
	mov	edx, DWORD PTR UURLLB$[rip]
	mov	DWORD PTR [rax], edx
	mov	rax, QWORD PTR PMOSC$[rip]
	add	rax, 4
	mov	QWORD PTR PMOSC$[rip], rax
	nop
	pop	rbp
	ret
.L1313:
	.seh_endproc
	.globl	URHHB
	.def	URHHB;	.scl	2;	.type	32;	.endef
	.seh_proc	URHHB
URHHB:
	push	rbp
	.seh_pushreg	rbp
	mov	rbp, rsp
	.seh_setframe	rbp, 0
	.seh_endprologue
.L1315:
